
Calculator.elf:     file format elf32-avr

Sections:
Idx Name          Size      VMA       LMA       File off  Algn
  0 .text         0000305a  00000000  00000000  00000074  2**1
                  CONTENTS, ALLOC, LOAD, READONLY, CODE
  1 .data         0000011e  00800060  0000305a  000030ce  2**0
                  CONTENTS, ALLOC, LOAD, DATA
  2 .stab         000006cc  00000000  00000000  000031ec  2**2
                  CONTENTS, READONLY, DEBUGGING
  3 .stabstr      00000085  00000000  00000000  000038b8  2**0
                  CONTENTS, READONLY, DEBUGGING
  4 .debug_aranges 00000120  00000000  00000000  00003940  2**3
                  CONTENTS, READONLY, DEBUGGING
  5 .debug_info   00001554  00000000  00000000  00003a60  2**0
                  CONTENTS, READONLY, DEBUGGING
  6 .debug_abbrev 00000428  00000000  00000000  00004fb4  2**0
                  CONTENTS, READONLY, DEBUGGING
  7 .debug_line   000006b2  00000000  00000000  000053dc  2**0
                  CONTENTS, READONLY, DEBUGGING
  8 .debug_frame  00000098  00000000  00000000  00005a90  2**2
                  CONTENTS, READONLY, DEBUGGING
  9 .debug_str    0000019e  00000000  00000000  00005b28  2**0
                  CONTENTS, READONLY, DEBUGGING
 10 .debug_loc    00002018  00000000  00000000  00005cc6  2**0
                  CONTENTS, READONLY, DEBUGGING
 11 .debug_ranges 00000030  00000000  00000000  00007cde  2**0
                  CONTENTS, READONLY, DEBUGGING

Disassembly of section .text:

00000000 <__vectors>:
       0:	0c 94 2a 00 	jmp	0x54	; 0x54 <__ctors_end>
       4:	0c 94 47 00 	jmp	0x8e	; 0x8e <__bad_interrupt>
       8:	0c 94 47 00 	jmp	0x8e	; 0x8e <__bad_interrupt>
       c:	0c 94 47 00 	jmp	0x8e	; 0x8e <__bad_interrupt>
      10:	0c 94 47 00 	jmp	0x8e	; 0x8e <__bad_interrupt>
      14:	0c 94 47 00 	jmp	0x8e	; 0x8e <__bad_interrupt>
      18:	0c 94 47 00 	jmp	0x8e	; 0x8e <__bad_interrupt>
      1c:	0c 94 47 00 	jmp	0x8e	; 0x8e <__bad_interrupt>
      20:	0c 94 47 00 	jmp	0x8e	; 0x8e <__bad_interrupt>
      24:	0c 94 47 00 	jmp	0x8e	; 0x8e <__bad_interrupt>
      28:	0c 94 47 00 	jmp	0x8e	; 0x8e <__bad_interrupt>
      2c:	0c 94 47 00 	jmp	0x8e	; 0x8e <__bad_interrupt>
      30:	0c 94 47 00 	jmp	0x8e	; 0x8e <__bad_interrupt>
      34:	0c 94 47 00 	jmp	0x8e	; 0x8e <__bad_interrupt>
      38:	0c 94 47 00 	jmp	0x8e	; 0x8e <__bad_interrupt>
      3c:	0c 94 47 00 	jmp	0x8e	; 0x8e <__bad_interrupt>
      40:	0c 94 47 00 	jmp	0x8e	; 0x8e <__bad_interrupt>
      44:	0c 94 47 00 	jmp	0x8e	; 0x8e <__bad_interrupt>
      48:	0c 94 47 00 	jmp	0x8e	; 0x8e <__bad_interrupt>
      4c:	0c 94 47 00 	jmp	0x8e	; 0x8e <__bad_interrupt>
      50:	0c 94 47 00 	jmp	0x8e	; 0x8e <__bad_interrupt>

00000054 <__ctors_end>:
      54:	11 24       	eor	r1, r1
      56:	1f be       	out	0x3f, r1	; 63
      58:	cf e5       	ldi	r28, 0x5F	; 95
      5a:	d8 e0       	ldi	r29, 0x08	; 8
      5c:	de bf       	out	0x3e, r29	; 62
      5e:	cd bf       	out	0x3d, r28	; 61

00000060 <__do_copy_data>:
      60:	11 e0       	ldi	r17, 0x01	; 1
      62:	a0 e6       	ldi	r26, 0x60	; 96
      64:	b0 e0       	ldi	r27, 0x00	; 0
      66:	ea e5       	ldi	r30, 0x5A	; 90
      68:	f0 e3       	ldi	r31, 0x30	; 48
      6a:	02 c0       	rjmp	.+4      	; 0x70 <__do_copy_data+0x10>
      6c:	05 90       	lpm	r0, Z+
      6e:	0d 92       	st	X+, r0
      70:	ae 37       	cpi	r26, 0x7E	; 126
      72:	b1 07       	cpc	r27, r17
      74:	d9 f7       	brne	.-10     	; 0x6c <__do_copy_data+0xc>

00000076 <__do_clear_bss>:
      76:	11 e0       	ldi	r17, 0x01	; 1
      78:	ae e7       	ldi	r26, 0x7E	; 126
      7a:	b1 e0       	ldi	r27, 0x01	; 1
      7c:	01 c0       	rjmp	.+2      	; 0x80 <.do_clear_bss_start>

0000007e <.do_clear_bss_loop>:
      7e:	1d 92       	st	X+, r1

00000080 <.do_clear_bss_start>:
      80:	ae 37       	cpi	r26, 0x7E	; 126
      82:	b1 07       	cpc	r27, r17
      84:	e1 f7       	brne	.-8      	; 0x7e <.do_clear_bss_loop>
      86:	0e 94 ff 0f 	call	0x1ffe	; 0x1ffe <main>
      8a:	0c 94 2b 18 	jmp	0x3056	; 0x3056 <_exit>

0000008e <__bad_interrupt>:
      8e:	0c 94 00 00 	jmp	0	; 0x0 <__vectors>

00000092 <DIO_vsetPinDir>:
      92:	84 34       	cpi	r24, 0x44	; 68
      94:	09 f4       	brne	.+2      	; 0x98 <DIO_vsetPinDir+0x6>
      96:	4b c0       	rjmp	.+150    	; 0x12e <DIO_vsetPinDir+0x9c>
      98:	85 34       	cpi	r24, 0x45	; 69
      9a:	40 f4       	brcc	.+16     	; 0xac <DIO_vsetPinDir+0x1a>
      9c:	82 34       	cpi	r24, 0x42	; 66
      9e:	29 f1       	breq	.+74     	; 0xea <DIO_vsetPinDir+0x58>
      a0:	83 34       	cpi	r24, 0x43	; 67
      a2:	a0 f5       	brcc	.+104    	; 0x10c <DIO_vsetPinDir+0x7a>
      a4:	81 34       	cpi	r24, 0x41	; 65
      a6:	09 f0       	breq	.+2      	; 0xaa <DIO_vsetPinDir+0x18>
      a8:	52 c0       	rjmp	.+164    	; 0x14e <DIO_vsetPinDir+0xbc>
      aa:	0e c0       	rjmp	.+28     	; 0xc8 <DIO_vsetPinDir+0x36>
      ac:	82 36       	cpi	r24, 0x62	; 98
      ae:	e9 f0       	breq	.+58     	; 0xea <DIO_vsetPinDir+0x58>
      b0:	83 36       	cpi	r24, 0x63	; 99
      b2:	20 f4       	brcc	.+8      	; 0xbc <DIO_vsetPinDir+0x2a>
      b4:	81 36       	cpi	r24, 0x61	; 97
      b6:	09 f0       	breq	.+2      	; 0xba <DIO_vsetPinDir+0x28>
      b8:	4a c0       	rjmp	.+148    	; 0x14e <DIO_vsetPinDir+0xbc>
      ba:	06 c0       	rjmp	.+12     	; 0xc8 <DIO_vsetPinDir+0x36>
      bc:	83 36       	cpi	r24, 0x63	; 99
      be:	31 f1       	breq	.+76     	; 0x10c <DIO_vsetPinDir+0x7a>
      c0:	84 36       	cpi	r24, 0x64	; 100
      c2:	09 f0       	breq	.+2      	; 0xc6 <DIO_vsetPinDir+0x34>
      c4:	44 c0       	rjmp	.+136    	; 0x14e <DIO_vsetPinDir+0xbc>
      c6:	33 c0       	rjmp	.+102    	; 0x12e <DIO_vsetPinDir+0x9c>
      c8:	2a b3       	in	r18, 0x1a	; 26
      ca:	81 e0       	ldi	r24, 0x01	; 1
      cc:	90 e0       	ldi	r25, 0x00	; 0
      ce:	02 c0       	rjmp	.+4      	; 0xd4 <DIO_vsetPinDir+0x42>
      d0:	88 0f       	add	r24, r24
      d2:	99 1f       	adc	r25, r25
      d4:	6a 95       	dec	r22
      d6:	e2 f7       	brpl	.-8      	; 0xd0 <DIO_vsetPinDir+0x3e>
      d8:	41 30       	cpi	r20, 0x01	; 1
      da:	19 f4       	brne	.+6      	; 0xe2 <DIO_vsetPinDir+0x50>
      dc:	28 2b       	or	r18, r24
      de:	2a bb       	out	0x1a, r18	; 26
      e0:	08 95       	ret
      e2:	80 95       	com	r24
      e4:	82 23       	and	r24, r18
      e6:	8a bb       	out	0x1a, r24	; 26
      e8:	08 95       	ret
      ea:	27 b3       	in	r18, 0x17	; 23
      ec:	81 e0       	ldi	r24, 0x01	; 1
      ee:	90 e0       	ldi	r25, 0x00	; 0
      f0:	02 c0       	rjmp	.+4      	; 0xf6 <DIO_vsetPinDir+0x64>
      f2:	88 0f       	add	r24, r24
      f4:	99 1f       	adc	r25, r25
      f6:	6a 95       	dec	r22
      f8:	e2 f7       	brpl	.-8      	; 0xf2 <DIO_vsetPinDir+0x60>
      fa:	41 30       	cpi	r20, 0x01	; 1
      fc:	19 f4       	brne	.+6      	; 0x104 <DIO_vsetPinDir+0x72>
      fe:	28 2b       	or	r18, r24
     100:	27 bb       	out	0x17, r18	; 23
     102:	08 95       	ret
     104:	80 95       	com	r24
     106:	82 23       	and	r24, r18
     108:	87 bb       	out	0x17, r24	; 23
     10a:	08 95       	ret
     10c:	24 b3       	in	r18, 0x14	; 20
     10e:	81 e0       	ldi	r24, 0x01	; 1
     110:	90 e0       	ldi	r25, 0x00	; 0
     112:	02 c0       	rjmp	.+4      	; 0x118 <DIO_vsetPinDir+0x86>
     114:	88 0f       	add	r24, r24
     116:	99 1f       	adc	r25, r25
     118:	6a 95       	dec	r22
     11a:	e2 f7       	brpl	.-8      	; 0x114 <DIO_vsetPinDir+0x82>
     11c:	41 30       	cpi	r20, 0x01	; 1
     11e:	19 f4       	brne	.+6      	; 0x126 <DIO_vsetPinDir+0x94>
     120:	28 2b       	or	r18, r24
     122:	24 bb       	out	0x14, r18	; 20
     124:	08 95       	ret
     126:	80 95       	com	r24
     128:	82 23       	and	r24, r18
     12a:	84 bb       	out	0x14, r24	; 20
     12c:	08 95       	ret
     12e:	21 b3       	in	r18, 0x11	; 17
     130:	81 e0       	ldi	r24, 0x01	; 1
     132:	90 e0       	ldi	r25, 0x00	; 0
     134:	02 c0       	rjmp	.+4      	; 0x13a <DIO_vsetPinDir+0xa8>
     136:	88 0f       	add	r24, r24
     138:	99 1f       	adc	r25, r25
     13a:	6a 95       	dec	r22
     13c:	e2 f7       	brpl	.-8      	; 0x136 <DIO_vsetPinDir+0xa4>
     13e:	41 30       	cpi	r20, 0x01	; 1
     140:	19 f4       	brne	.+6      	; 0x148 <DIO_vsetPinDir+0xb6>
     142:	28 2b       	or	r18, r24
     144:	21 bb       	out	0x11, r18	; 17
     146:	08 95       	ret
     148:	80 95       	com	r24
     14a:	82 23       	and	r24, r18
     14c:	81 bb       	out	0x11, r24	; 17
     14e:	08 95       	ret

00000150 <DIO_vWritePin>:
     150:	84 34       	cpi	r24, 0x44	; 68
     152:	09 f4       	brne	.+2      	; 0x156 <DIO_vWritePin+0x6>
     154:	4b c0       	rjmp	.+150    	; 0x1ec <DIO_vWritePin+0x9c>
     156:	85 34       	cpi	r24, 0x45	; 69
     158:	40 f4       	brcc	.+16     	; 0x16a <DIO_vWritePin+0x1a>
     15a:	82 34       	cpi	r24, 0x42	; 66
     15c:	29 f1       	breq	.+74     	; 0x1a8 <DIO_vWritePin+0x58>
     15e:	83 34       	cpi	r24, 0x43	; 67
     160:	a0 f5       	brcc	.+104    	; 0x1ca <DIO_vWritePin+0x7a>
     162:	81 34       	cpi	r24, 0x41	; 65
     164:	09 f0       	breq	.+2      	; 0x168 <DIO_vWritePin+0x18>
     166:	52 c0       	rjmp	.+164    	; 0x20c <DIO_vWritePin+0xbc>
     168:	0e c0       	rjmp	.+28     	; 0x186 <DIO_vWritePin+0x36>
     16a:	82 36       	cpi	r24, 0x62	; 98
     16c:	e9 f0       	breq	.+58     	; 0x1a8 <DIO_vWritePin+0x58>
     16e:	83 36       	cpi	r24, 0x63	; 99
     170:	20 f4       	brcc	.+8      	; 0x17a <DIO_vWritePin+0x2a>
     172:	81 36       	cpi	r24, 0x61	; 97
     174:	09 f0       	breq	.+2      	; 0x178 <DIO_vWritePin+0x28>
     176:	4a c0       	rjmp	.+148    	; 0x20c <DIO_vWritePin+0xbc>
     178:	06 c0       	rjmp	.+12     	; 0x186 <DIO_vWritePin+0x36>
     17a:	83 36       	cpi	r24, 0x63	; 99
     17c:	31 f1       	breq	.+76     	; 0x1ca <DIO_vWritePin+0x7a>
     17e:	84 36       	cpi	r24, 0x64	; 100
     180:	09 f0       	breq	.+2      	; 0x184 <DIO_vWritePin+0x34>
     182:	44 c0       	rjmp	.+136    	; 0x20c <DIO_vWritePin+0xbc>
     184:	33 c0       	rjmp	.+102    	; 0x1ec <DIO_vWritePin+0x9c>
     186:	2b b3       	in	r18, 0x1b	; 27
     188:	81 e0       	ldi	r24, 0x01	; 1
     18a:	90 e0       	ldi	r25, 0x00	; 0
     18c:	02 c0       	rjmp	.+4      	; 0x192 <DIO_vWritePin+0x42>
     18e:	88 0f       	add	r24, r24
     190:	99 1f       	adc	r25, r25
     192:	6a 95       	dec	r22
     194:	e2 f7       	brpl	.-8      	; 0x18e <DIO_vWritePin+0x3e>
     196:	41 30       	cpi	r20, 0x01	; 1
     198:	19 f4       	brne	.+6      	; 0x1a0 <DIO_vWritePin+0x50>
     19a:	28 2b       	or	r18, r24
     19c:	2b bb       	out	0x1b, r18	; 27
     19e:	08 95       	ret
     1a0:	80 95       	com	r24
     1a2:	82 23       	and	r24, r18
     1a4:	8b bb       	out	0x1b, r24	; 27
     1a6:	08 95       	ret
     1a8:	28 b3       	in	r18, 0x18	; 24
     1aa:	81 e0       	ldi	r24, 0x01	; 1
     1ac:	90 e0       	ldi	r25, 0x00	; 0
     1ae:	02 c0       	rjmp	.+4      	; 0x1b4 <DIO_vWritePin+0x64>
     1b0:	88 0f       	add	r24, r24
     1b2:	99 1f       	adc	r25, r25
     1b4:	6a 95       	dec	r22
     1b6:	e2 f7       	brpl	.-8      	; 0x1b0 <DIO_vWritePin+0x60>
     1b8:	41 30       	cpi	r20, 0x01	; 1
     1ba:	19 f4       	brne	.+6      	; 0x1c2 <DIO_vWritePin+0x72>
     1bc:	28 2b       	or	r18, r24
     1be:	28 bb       	out	0x18, r18	; 24
     1c0:	08 95       	ret
     1c2:	80 95       	com	r24
     1c4:	82 23       	and	r24, r18
     1c6:	88 bb       	out	0x18, r24	; 24
     1c8:	08 95       	ret
     1ca:	25 b3       	in	r18, 0x15	; 21
     1cc:	81 e0       	ldi	r24, 0x01	; 1
     1ce:	90 e0       	ldi	r25, 0x00	; 0
     1d0:	02 c0       	rjmp	.+4      	; 0x1d6 <DIO_vWritePin+0x86>
     1d2:	88 0f       	add	r24, r24
     1d4:	99 1f       	adc	r25, r25
     1d6:	6a 95       	dec	r22
     1d8:	e2 f7       	brpl	.-8      	; 0x1d2 <DIO_vWritePin+0x82>
     1da:	41 30       	cpi	r20, 0x01	; 1
     1dc:	19 f4       	brne	.+6      	; 0x1e4 <DIO_vWritePin+0x94>
     1de:	28 2b       	or	r18, r24
     1e0:	25 bb       	out	0x15, r18	; 21
     1e2:	08 95       	ret
     1e4:	80 95       	com	r24
     1e6:	82 23       	and	r24, r18
     1e8:	85 bb       	out	0x15, r24	; 21
     1ea:	08 95       	ret
     1ec:	22 b3       	in	r18, 0x12	; 18
     1ee:	81 e0       	ldi	r24, 0x01	; 1
     1f0:	90 e0       	ldi	r25, 0x00	; 0
     1f2:	02 c0       	rjmp	.+4      	; 0x1f8 <DIO_vWritePin+0xa8>
     1f4:	88 0f       	add	r24, r24
     1f6:	99 1f       	adc	r25, r25
     1f8:	6a 95       	dec	r22
     1fa:	e2 f7       	brpl	.-8      	; 0x1f4 <DIO_vWritePin+0xa4>
     1fc:	41 30       	cpi	r20, 0x01	; 1
     1fe:	19 f4       	brne	.+6      	; 0x206 <DIO_vWritePin+0xb6>
     200:	28 2b       	or	r18, r24
     202:	22 bb       	out	0x12, r18	; 18
     204:	08 95       	ret
     206:	80 95       	com	r24
     208:	82 23       	and	r24, r18
     20a:	82 bb       	out	0x12, r24	; 18
     20c:	08 95       	ret

0000020e <DIO_vTogglePin>:
     20e:	84 34       	cpi	r24, 0x44	; 68
     210:	b1 f1       	breq	.+108    	; 0x27e <DIO_vTogglePin+0x70>
     212:	85 34       	cpi	r24, 0x45	; 69
     214:	38 f4       	brcc	.+14     	; 0x224 <DIO_vTogglePin+0x16>
     216:	82 34       	cpi	r24, 0x42	; 66
     218:	e1 f0       	breq	.+56     	; 0x252 <DIO_vTogglePin+0x44>
     21a:	83 34       	cpi	r24, 0x43	; 67
     21c:	28 f5       	brcc	.+74     	; 0x268 <DIO_vTogglePin+0x5a>
     21e:	81 34       	cpi	r24, 0x41	; 65
     220:	c1 f5       	brne	.+112    	; 0x292 <DIO_vTogglePin+0x84>
     222:	0c c0       	rjmp	.+24     	; 0x23c <DIO_vTogglePin+0x2e>
     224:	82 36       	cpi	r24, 0x62	; 98
     226:	a9 f0       	breq	.+42     	; 0x252 <DIO_vTogglePin+0x44>
     228:	83 36       	cpi	r24, 0x63	; 99
     22a:	18 f4       	brcc	.+6      	; 0x232 <DIO_vTogglePin+0x24>
     22c:	81 36       	cpi	r24, 0x61	; 97
     22e:	89 f5       	brne	.+98     	; 0x292 <DIO_vTogglePin+0x84>
     230:	05 c0       	rjmp	.+10     	; 0x23c <DIO_vTogglePin+0x2e>
     232:	83 36       	cpi	r24, 0x63	; 99
     234:	c9 f0       	breq	.+50     	; 0x268 <DIO_vTogglePin+0x5a>
     236:	84 36       	cpi	r24, 0x64	; 100
     238:	61 f5       	brne	.+88     	; 0x292 <DIO_vTogglePin+0x84>
     23a:	21 c0       	rjmp	.+66     	; 0x27e <DIO_vTogglePin+0x70>
     23c:	2b b3       	in	r18, 0x1b	; 27
     23e:	81 e0       	ldi	r24, 0x01	; 1
     240:	90 e0       	ldi	r25, 0x00	; 0
     242:	02 c0       	rjmp	.+4      	; 0x248 <DIO_vTogglePin+0x3a>
     244:	88 0f       	add	r24, r24
     246:	99 1f       	adc	r25, r25
     248:	6a 95       	dec	r22
     24a:	e2 f7       	brpl	.-8      	; 0x244 <DIO_vTogglePin+0x36>
     24c:	28 27       	eor	r18, r24
     24e:	2b bb       	out	0x1b, r18	; 27
     250:	08 95       	ret
     252:	28 b3       	in	r18, 0x18	; 24
     254:	81 e0       	ldi	r24, 0x01	; 1
     256:	90 e0       	ldi	r25, 0x00	; 0
     258:	02 c0       	rjmp	.+4      	; 0x25e <DIO_vTogglePin+0x50>
     25a:	88 0f       	add	r24, r24
     25c:	99 1f       	adc	r25, r25
     25e:	6a 95       	dec	r22
     260:	e2 f7       	brpl	.-8      	; 0x25a <DIO_vTogglePin+0x4c>
     262:	28 27       	eor	r18, r24
     264:	28 bb       	out	0x18, r18	; 24
     266:	08 95       	ret
     268:	25 b3       	in	r18, 0x15	; 21
     26a:	81 e0       	ldi	r24, 0x01	; 1
     26c:	90 e0       	ldi	r25, 0x00	; 0
     26e:	02 c0       	rjmp	.+4      	; 0x274 <DIO_vTogglePin+0x66>
     270:	88 0f       	add	r24, r24
     272:	99 1f       	adc	r25, r25
     274:	6a 95       	dec	r22
     276:	e2 f7       	brpl	.-8      	; 0x270 <DIO_vTogglePin+0x62>
     278:	28 27       	eor	r18, r24
     27a:	25 bb       	out	0x15, r18	; 21
     27c:	08 95       	ret
     27e:	22 b3       	in	r18, 0x12	; 18
     280:	81 e0       	ldi	r24, 0x01	; 1
     282:	90 e0       	ldi	r25, 0x00	; 0
     284:	02 c0       	rjmp	.+4      	; 0x28a <DIO_vTogglePin+0x7c>
     286:	88 0f       	add	r24, r24
     288:	99 1f       	adc	r25, r25
     28a:	6a 95       	dec	r22
     28c:	e2 f7       	brpl	.-8      	; 0x286 <DIO_vTogglePin+0x78>
     28e:	28 27       	eor	r18, r24
     290:	22 bb       	out	0x12, r18	; 18
     292:	08 95       	ret

00000294 <DIO_u8ReadPin>:
     294:	84 34       	cpi	r24, 0x44	; 68
     296:	d9 f0       	breq	.+54     	; 0x2ce <DIO_u8ReadPin+0x3a>
     298:	85 34       	cpi	r24, 0x45	; 69
     29a:	38 f4       	brcc	.+14     	; 0x2aa <DIO_u8ReadPin+0x16>
     29c:	82 34       	cpi	r24, 0x42	; 66
     29e:	99 f0       	breq	.+38     	; 0x2c6 <DIO_u8ReadPin+0x32>
     2a0:	83 34       	cpi	r24, 0x43	; 67
     2a2:	98 f4       	brcc	.+38     	; 0x2ca <DIO_u8ReadPin+0x36>
     2a4:	81 34       	cpi	r24, 0x41	; 65
     2a6:	29 f5       	brne	.+74     	; 0x2f2 <DIO_u8ReadPin+0x5e>
     2a8:	0c c0       	rjmp	.+24     	; 0x2c2 <DIO_u8ReadPin+0x2e>
     2aa:	82 36       	cpi	r24, 0x62	; 98
     2ac:	61 f0       	breq	.+24     	; 0x2c6 <DIO_u8ReadPin+0x32>
     2ae:	83 36       	cpi	r24, 0x63	; 99
     2b0:	18 f4       	brcc	.+6      	; 0x2b8 <DIO_u8ReadPin+0x24>
     2b2:	81 36       	cpi	r24, 0x61	; 97
     2b4:	f1 f4       	brne	.+60     	; 0x2f2 <DIO_u8ReadPin+0x5e>
     2b6:	05 c0       	rjmp	.+10     	; 0x2c2 <DIO_u8ReadPin+0x2e>
     2b8:	83 36       	cpi	r24, 0x63	; 99
     2ba:	39 f0       	breq	.+14     	; 0x2ca <DIO_u8ReadPin+0x36>
     2bc:	84 36       	cpi	r24, 0x64	; 100
     2be:	c9 f4       	brne	.+50     	; 0x2f2 <DIO_u8ReadPin+0x5e>
     2c0:	06 c0       	rjmp	.+12     	; 0x2ce <DIO_u8ReadPin+0x3a>
     2c2:	29 b3       	in	r18, 0x19	; 25
     2c4:	05 c0       	rjmp	.+10     	; 0x2d0 <DIO_u8ReadPin+0x3c>
     2c6:	26 b3       	in	r18, 0x16	; 22
     2c8:	03 c0       	rjmp	.+6      	; 0x2d0 <DIO_u8ReadPin+0x3c>
     2ca:	23 b3       	in	r18, 0x13	; 19
     2cc:	01 c0       	rjmp	.+2      	; 0x2d0 <DIO_u8ReadPin+0x3c>
     2ce:	20 b3       	in	r18, 0x10	; 16
     2d0:	81 e0       	ldi	r24, 0x01	; 1
     2d2:	90 e0       	ldi	r25, 0x00	; 0
     2d4:	06 2e       	mov	r0, r22
     2d6:	02 c0       	rjmp	.+4      	; 0x2dc <DIO_u8ReadPin+0x48>
     2d8:	88 0f       	add	r24, r24
     2da:	99 1f       	adc	r25, r25
     2dc:	0a 94       	dec	r0
     2de:	e2 f7       	brpl	.-8      	; 0x2d8 <DIO_u8ReadPin+0x44>
     2e0:	30 e0       	ldi	r19, 0x00	; 0
     2e2:	82 23       	and	r24, r18
     2e4:	93 23       	and	r25, r19
     2e6:	02 c0       	rjmp	.+4      	; 0x2ec <DIO_u8ReadPin+0x58>
     2e8:	95 95       	asr	r25
     2ea:	87 95       	ror	r24
     2ec:	6a 95       	dec	r22
     2ee:	e2 f7       	brpl	.-8      	; 0x2e8 <DIO_u8ReadPin+0x54>
     2f0:	08 95       	ret
     2f2:	80 e0       	ldi	r24, 0x00	; 0
     2f4:	08 95       	ret

000002f6 <DIO_vSetPortDirection>:
     2f6:	84 34       	cpi	r24, 0x44	; 68
     2f8:	d9 f0       	breq	.+54     	; 0x330 <DIO_vSetPortDirection+0x3a>
     2fa:	85 34       	cpi	r24, 0x45	; 69
     2fc:	38 f4       	brcc	.+14     	; 0x30c <DIO_vSetPortDirection+0x16>
     2fe:	82 34       	cpi	r24, 0x42	; 66
     300:	99 f0       	breq	.+38     	; 0x328 <DIO_vSetPortDirection+0x32>
     302:	83 34       	cpi	r24, 0x43	; 67
     304:	98 f4       	brcc	.+38     	; 0x32c <DIO_vSetPortDirection+0x36>
     306:	81 34       	cpi	r24, 0x41	; 65
     308:	a1 f4       	brne	.+40     	; 0x332 <DIO_vSetPortDirection+0x3c>
     30a:	0c c0       	rjmp	.+24     	; 0x324 <DIO_vSetPortDirection+0x2e>
     30c:	82 36       	cpi	r24, 0x62	; 98
     30e:	61 f0       	breq	.+24     	; 0x328 <DIO_vSetPortDirection+0x32>
     310:	83 36       	cpi	r24, 0x63	; 99
     312:	18 f4       	brcc	.+6      	; 0x31a <DIO_vSetPortDirection+0x24>
     314:	81 36       	cpi	r24, 0x61	; 97
     316:	69 f4       	brne	.+26     	; 0x332 <DIO_vSetPortDirection+0x3c>
     318:	05 c0       	rjmp	.+10     	; 0x324 <DIO_vSetPortDirection+0x2e>
     31a:	83 36       	cpi	r24, 0x63	; 99
     31c:	39 f0       	breq	.+14     	; 0x32c <DIO_vSetPortDirection+0x36>
     31e:	84 36       	cpi	r24, 0x64	; 100
     320:	41 f4       	brne	.+16     	; 0x332 <DIO_vSetPortDirection+0x3c>
     322:	06 c0       	rjmp	.+12     	; 0x330 <DIO_vSetPortDirection+0x3a>
     324:	6a bb       	out	0x1a, r22	; 26
     326:	08 95       	ret
     328:	67 bb       	out	0x17, r22	; 23
     32a:	08 95       	ret
     32c:	64 bb       	out	0x14, r22	; 20
     32e:	08 95       	ret
     330:	61 bb       	out	0x11, r22	; 17
     332:	08 95       	ret

00000334 <DIO_vWritePort>:
     334:	84 34       	cpi	r24, 0x44	; 68
     336:	d9 f0       	breq	.+54     	; 0x36e <DIO_vWritePort+0x3a>
     338:	85 34       	cpi	r24, 0x45	; 69
     33a:	38 f4       	brcc	.+14     	; 0x34a <DIO_vWritePort+0x16>
     33c:	82 34       	cpi	r24, 0x42	; 66
     33e:	99 f0       	breq	.+38     	; 0x366 <DIO_vWritePort+0x32>
     340:	83 34       	cpi	r24, 0x43	; 67
     342:	98 f4       	brcc	.+38     	; 0x36a <DIO_vWritePort+0x36>
     344:	81 34       	cpi	r24, 0x41	; 65
     346:	a1 f4       	brne	.+40     	; 0x370 <DIO_vWritePort+0x3c>
     348:	0c c0       	rjmp	.+24     	; 0x362 <DIO_vWritePort+0x2e>
     34a:	82 36       	cpi	r24, 0x62	; 98
     34c:	61 f0       	breq	.+24     	; 0x366 <DIO_vWritePort+0x32>
     34e:	83 36       	cpi	r24, 0x63	; 99
     350:	18 f4       	brcc	.+6      	; 0x358 <DIO_vWritePort+0x24>
     352:	81 36       	cpi	r24, 0x61	; 97
     354:	69 f4       	brne	.+26     	; 0x370 <DIO_vWritePort+0x3c>
     356:	05 c0       	rjmp	.+10     	; 0x362 <DIO_vWritePort+0x2e>
     358:	83 36       	cpi	r24, 0x63	; 99
     35a:	39 f0       	breq	.+14     	; 0x36a <DIO_vWritePort+0x36>
     35c:	84 36       	cpi	r24, 0x64	; 100
     35e:	41 f4       	brne	.+16     	; 0x370 <DIO_vWritePort+0x3c>
     360:	06 c0       	rjmp	.+12     	; 0x36e <DIO_vWritePort+0x3a>
     362:	6b bb       	out	0x1b, r22	; 27
     364:	08 95       	ret
     366:	68 bb       	out	0x18, r22	; 24
     368:	08 95       	ret
     36a:	65 bb       	out	0x15, r22	; 21
     36c:	08 95       	ret
     36e:	62 bb       	out	0x12, r22	; 18
     370:	08 95       	ret

00000372 <DIO_u8ReadPort>:
     372:	84 34       	cpi	r24, 0x44	; 68
     374:	d9 f0       	breq	.+54     	; 0x3ac <DIO_u8ReadPort+0x3a>
     376:	85 34       	cpi	r24, 0x45	; 69
     378:	38 f4       	brcc	.+14     	; 0x388 <DIO_u8ReadPort+0x16>
     37a:	82 34       	cpi	r24, 0x42	; 66
     37c:	99 f0       	breq	.+38     	; 0x3a4 <DIO_u8ReadPort+0x32>
     37e:	83 34       	cpi	r24, 0x43	; 67
     380:	98 f4       	brcc	.+38     	; 0x3a8 <DIO_u8ReadPort+0x36>
     382:	81 34       	cpi	r24, 0x41	; 65
     384:	a9 f4       	brne	.+42     	; 0x3b0 <DIO_u8ReadPort+0x3e>
     386:	0c c0       	rjmp	.+24     	; 0x3a0 <DIO_u8ReadPort+0x2e>
     388:	82 36       	cpi	r24, 0x62	; 98
     38a:	61 f0       	breq	.+24     	; 0x3a4 <DIO_u8ReadPort+0x32>
     38c:	83 36       	cpi	r24, 0x63	; 99
     38e:	18 f4       	brcc	.+6      	; 0x396 <DIO_u8ReadPort+0x24>
     390:	81 36       	cpi	r24, 0x61	; 97
     392:	71 f4       	brne	.+28     	; 0x3b0 <DIO_u8ReadPort+0x3e>
     394:	05 c0       	rjmp	.+10     	; 0x3a0 <DIO_u8ReadPort+0x2e>
     396:	83 36       	cpi	r24, 0x63	; 99
     398:	39 f0       	breq	.+14     	; 0x3a8 <DIO_u8ReadPort+0x36>
     39a:	84 36       	cpi	r24, 0x64	; 100
     39c:	49 f4       	brne	.+18     	; 0x3b0 <DIO_u8ReadPort+0x3e>
     39e:	06 c0       	rjmp	.+12     	; 0x3ac <DIO_u8ReadPort+0x3a>
     3a0:	89 b3       	in	r24, 0x19	; 25
     3a2:	08 95       	ret
     3a4:	86 b3       	in	r24, 0x16	; 22
     3a6:	08 95       	ret
     3a8:	83 b3       	in	r24, 0x13	; 19
     3aa:	08 95       	ret
     3ac:	80 b3       	in	r24, 0x10	; 16
     3ae:	08 95       	ret
     3b0:	80 e0       	ldi	r24, 0x00	; 0
     3b2:	08 95       	ret

000003b4 <DIO_vTogglePort>:
     3b4:	84 34       	cpi	r24, 0x44	; 68
     3b6:	09 f1       	breq	.+66     	; 0x3fa <DIO_vTogglePort+0x46>
     3b8:	85 34       	cpi	r24, 0x45	; 69
     3ba:	38 f4       	brcc	.+14     	; 0x3ca <DIO_vTogglePort+0x16>
     3bc:	82 34       	cpi	r24, 0x42	; 66
     3be:	a9 f0       	breq	.+42     	; 0x3ea <DIO_vTogglePort+0x36>
     3c0:	83 34       	cpi	r24, 0x43	; 67
     3c2:	b8 f4       	brcc	.+46     	; 0x3f2 <DIO_vTogglePort+0x3e>
     3c4:	81 34       	cpi	r24, 0x41	; 65
     3c6:	e1 f4       	brne	.+56     	; 0x400 <DIO_vTogglePort+0x4c>
     3c8:	0c c0       	rjmp	.+24     	; 0x3e2 <DIO_vTogglePort+0x2e>
     3ca:	82 36       	cpi	r24, 0x62	; 98
     3cc:	71 f0       	breq	.+28     	; 0x3ea <DIO_vTogglePort+0x36>
     3ce:	83 36       	cpi	r24, 0x63	; 99
     3d0:	18 f4       	brcc	.+6      	; 0x3d8 <DIO_vTogglePort+0x24>
     3d2:	81 36       	cpi	r24, 0x61	; 97
     3d4:	a9 f4       	brne	.+42     	; 0x400 <DIO_vTogglePort+0x4c>
     3d6:	05 c0       	rjmp	.+10     	; 0x3e2 <DIO_vTogglePort+0x2e>
     3d8:	83 36       	cpi	r24, 0x63	; 99
     3da:	59 f0       	breq	.+22     	; 0x3f2 <DIO_vTogglePort+0x3e>
     3dc:	84 36       	cpi	r24, 0x64	; 100
     3de:	81 f4       	brne	.+32     	; 0x400 <DIO_vTogglePort+0x4c>
     3e0:	0c c0       	rjmp	.+24     	; 0x3fa <DIO_vTogglePort+0x46>
     3e2:	8b b3       	in	r24, 0x1b	; 27
     3e4:	80 95       	com	r24
     3e6:	8b bb       	out	0x1b, r24	; 27
     3e8:	08 95       	ret
     3ea:	88 b3       	in	r24, 0x18	; 24
     3ec:	80 95       	com	r24
     3ee:	88 bb       	out	0x18, r24	; 24
     3f0:	08 95       	ret
     3f2:	85 b3       	in	r24, 0x15	; 21
     3f4:	80 95       	com	r24
     3f6:	85 bb       	out	0x15, r24	; 21
     3f8:	08 95       	ret
     3fa:	82 b3       	in	r24, 0x12	; 18
     3fc:	80 95       	com	r24
     3fe:	82 bb       	out	0x12, r24	; 18
     400:	08 95       	ret

00000402 <DIO_vConnectInternalPullUp>:
     402:	84 34       	cpi	r24, 0x44	; 68
     404:	09 f4       	brne	.+2      	; 0x408 <DIO_vConnectInternalPullUp+0x6>
     406:	4b c0       	rjmp	.+150    	; 0x49e <DIO_vConnectInternalPullUp+0x9c>
     408:	85 34       	cpi	r24, 0x45	; 69
     40a:	40 f4       	brcc	.+16     	; 0x41c <DIO_vConnectInternalPullUp+0x1a>
     40c:	82 34       	cpi	r24, 0x42	; 66
     40e:	29 f1       	breq	.+74     	; 0x45a <DIO_vConnectInternalPullUp+0x58>
     410:	83 34       	cpi	r24, 0x43	; 67
     412:	a0 f5       	brcc	.+104    	; 0x47c <DIO_vConnectInternalPullUp+0x7a>
     414:	81 34       	cpi	r24, 0x41	; 65
     416:	09 f0       	breq	.+2      	; 0x41a <DIO_vConnectInternalPullUp+0x18>
     418:	52 c0       	rjmp	.+164    	; 0x4be <DIO_vConnectInternalPullUp+0xbc>
     41a:	0e c0       	rjmp	.+28     	; 0x438 <DIO_vConnectInternalPullUp+0x36>
     41c:	82 36       	cpi	r24, 0x62	; 98
     41e:	e9 f0       	breq	.+58     	; 0x45a <DIO_vConnectInternalPullUp+0x58>
     420:	83 36       	cpi	r24, 0x63	; 99
     422:	20 f4       	brcc	.+8      	; 0x42c <DIO_vConnectInternalPullUp+0x2a>
     424:	81 36       	cpi	r24, 0x61	; 97
     426:	09 f0       	breq	.+2      	; 0x42a <DIO_vConnectInternalPullUp+0x28>
     428:	4a c0       	rjmp	.+148    	; 0x4be <DIO_vConnectInternalPullUp+0xbc>
     42a:	06 c0       	rjmp	.+12     	; 0x438 <DIO_vConnectInternalPullUp+0x36>
     42c:	83 36       	cpi	r24, 0x63	; 99
     42e:	31 f1       	breq	.+76     	; 0x47c <DIO_vConnectInternalPullUp+0x7a>
     430:	84 36       	cpi	r24, 0x64	; 100
     432:	09 f0       	breq	.+2      	; 0x436 <DIO_vConnectInternalPullUp+0x34>
     434:	44 c0       	rjmp	.+136    	; 0x4be <DIO_vConnectInternalPullUp+0xbc>
     436:	33 c0       	rjmp	.+102    	; 0x49e <DIO_vConnectInternalPullUp+0x9c>
     438:	2b b3       	in	r18, 0x1b	; 27
     43a:	81 e0       	ldi	r24, 0x01	; 1
     43c:	90 e0       	ldi	r25, 0x00	; 0
     43e:	02 c0       	rjmp	.+4      	; 0x444 <DIO_vConnectInternalPullUp+0x42>
     440:	88 0f       	add	r24, r24
     442:	99 1f       	adc	r25, r25
     444:	6a 95       	dec	r22
     446:	e2 f7       	brpl	.-8      	; 0x440 <DIO_vConnectInternalPullUp+0x3e>
     448:	41 30       	cpi	r20, 0x01	; 1
     44a:	19 f4       	brne	.+6      	; 0x452 <DIO_vConnectInternalPullUp+0x50>
     44c:	28 2b       	or	r18, r24
     44e:	2b bb       	out	0x1b, r18	; 27
     450:	08 95       	ret
     452:	80 95       	com	r24
     454:	82 23       	and	r24, r18
     456:	8b bb       	out	0x1b, r24	; 27
     458:	08 95       	ret
     45a:	28 b3       	in	r18, 0x18	; 24
     45c:	81 e0       	ldi	r24, 0x01	; 1
     45e:	90 e0       	ldi	r25, 0x00	; 0
     460:	02 c0       	rjmp	.+4      	; 0x466 <DIO_vConnectInternalPullUp+0x64>
     462:	88 0f       	add	r24, r24
     464:	99 1f       	adc	r25, r25
     466:	6a 95       	dec	r22
     468:	e2 f7       	brpl	.-8      	; 0x462 <DIO_vConnectInternalPullUp+0x60>
     46a:	41 30       	cpi	r20, 0x01	; 1
     46c:	19 f4       	brne	.+6      	; 0x474 <DIO_vConnectInternalPullUp+0x72>
     46e:	28 2b       	or	r18, r24
     470:	28 bb       	out	0x18, r18	; 24
     472:	08 95       	ret
     474:	80 95       	com	r24
     476:	82 23       	and	r24, r18
     478:	88 bb       	out	0x18, r24	; 24
     47a:	08 95       	ret
     47c:	25 b3       	in	r18, 0x15	; 21
     47e:	81 e0       	ldi	r24, 0x01	; 1
     480:	90 e0       	ldi	r25, 0x00	; 0
     482:	02 c0       	rjmp	.+4      	; 0x488 <DIO_vConnectInternalPullUp+0x86>
     484:	88 0f       	add	r24, r24
     486:	99 1f       	adc	r25, r25
     488:	6a 95       	dec	r22
     48a:	e2 f7       	brpl	.-8      	; 0x484 <DIO_vConnectInternalPullUp+0x82>
     48c:	41 30       	cpi	r20, 0x01	; 1
     48e:	19 f4       	brne	.+6      	; 0x496 <DIO_vConnectInternalPullUp+0x94>
     490:	28 2b       	or	r18, r24
     492:	25 bb       	out	0x15, r18	; 21
     494:	08 95       	ret
     496:	80 95       	com	r24
     498:	82 23       	and	r24, r18
     49a:	85 bb       	out	0x15, r24	; 21
     49c:	08 95       	ret
     49e:	22 b3       	in	r18, 0x12	; 18
     4a0:	81 e0       	ldi	r24, 0x01	; 1
     4a2:	90 e0       	ldi	r25, 0x00	; 0
     4a4:	02 c0       	rjmp	.+4      	; 0x4aa <DIO_vConnectInternalPullUp+0xa8>
     4a6:	88 0f       	add	r24, r24
     4a8:	99 1f       	adc	r25, r25
     4aa:	6a 95       	dec	r22
     4ac:	e2 f7       	brpl	.-8      	; 0x4a6 <DIO_vConnectInternalPullUp+0xa4>
     4ae:	41 30       	cpi	r20, 0x01	; 1
     4b0:	19 f4       	brne	.+6      	; 0x4b8 <DIO_vConnectInternalPullUp+0xb6>
     4b2:	28 2b       	or	r18, r24
     4b4:	22 bb       	out	0x12, r18	; 18
     4b6:	08 95       	ret
     4b8:	80 95       	com	r24
     4ba:	82 23       	and	r24, r18
     4bc:	82 bb       	out	0x12, r24	; 18
     4be:	08 95       	ret

000004c0 <DIO_vWriteLowNibble>:
     4c0:	6f 70       	andi	r22, 0x0F	; 15
     4c2:	84 34       	cpi	r24, 0x44	; 68
     4c4:	51 f1       	breq	.+84     	; 0x51a <DIO_vWriteLowNibble+0x5a>
     4c6:	85 34       	cpi	r24, 0x45	; 69
     4c8:	38 f4       	brcc	.+14     	; 0x4d8 <DIO_vWriteLowNibble+0x18>
     4ca:	82 34       	cpi	r24, 0x42	; 66
     4cc:	c1 f0       	breq	.+48     	; 0x4fe <DIO_vWriteLowNibble+0x3e>
     4ce:	83 34       	cpi	r24, 0x43	; 67
     4d0:	e8 f4       	brcc	.+58     	; 0x50c <DIO_vWriteLowNibble+0x4c>
     4d2:	81 34       	cpi	r24, 0x41	; 65
     4d4:	41 f5       	brne	.+80     	; 0x526 <DIO_vWriteLowNibble+0x66>
     4d6:	0c c0       	rjmp	.+24     	; 0x4f0 <DIO_vWriteLowNibble+0x30>
     4d8:	82 36       	cpi	r24, 0x62	; 98
     4da:	89 f0       	breq	.+34     	; 0x4fe <DIO_vWriteLowNibble+0x3e>
     4dc:	83 36       	cpi	r24, 0x63	; 99
     4de:	18 f4       	brcc	.+6      	; 0x4e6 <DIO_vWriteLowNibble+0x26>
     4e0:	81 36       	cpi	r24, 0x61	; 97
     4e2:	09 f5       	brne	.+66     	; 0x526 <DIO_vWriteLowNibble+0x66>
     4e4:	05 c0       	rjmp	.+10     	; 0x4f0 <DIO_vWriteLowNibble+0x30>
     4e6:	83 36       	cpi	r24, 0x63	; 99
     4e8:	89 f0       	breq	.+34     	; 0x50c <DIO_vWriteLowNibble+0x4c>
     4ea:	84 36       	cpi	r24, 0x64	; 100
     4ec:	e1 f4       	brne	.+56     	; 0x526 <DIO_vWriteLowNibble+0x66>
     4ee:	15 c0       	rjmp	.+42     	; 0x51a <DIO_vWriteLowNibble+0x5a>
     4f0:	8b b3       	in	r24, 0x1b	; 27
     4f2:	80 7f       	andi	r24, 0xF0	; 240
     4f4:	8b bb       	out	0x1b, r24	; 27
     4f6:	8b b3       	in	r24, 0x1b	; 27
     4f8:	86 2b       	or	r24, r22
     4fa:	8b bb       	out	0x1b, r24	; 27
     4fc:	08 95       	ret
     4fe:	88 b3       	in	r24, 0x18	; 24
     500:	80 7f       	andi	r24, 0xF0	; 240
     502:	88 bb       	out	0x18, r24	; 24
     504:	88 b3       	in	r24, 0x18	; 24
     506:	86 2b       	or	r24, r22
     508:	88 bb       	out	0x18, r24	; 24
     50a:	08 95       	ret
     50c:	85 b3       	in	r24, 0x15	; 21
     50e:	80 7f       	andi	r24, 0xF0	; 240
     510:	85 bb       	out	0x15, r24	; 21
     512:	85 b3       	in	r24, 0x15	; 21
     514:	86 2b       	or	r24, r22
     516:	85 bb       	out	0x15, r24	; 21
     518:	08 95       	ret
     51a:	82 b3       	in	r24, 0x12	; 18
     51c:	80 7f       	andi	r24, 0xF0	; 240
     51e:	82 bb       	out	0x12, r24	; 18
     520:	82 b3       	in	r24, 0x12	; 18
     522:	86 2b       	or	r24, r22
     524:	82 bb       	out	0x12, r24	; 18
     526:	08 95       	ret

00000528 <DIO_vWriteHighNibble>:
     528:	62 95       	swap	r22
     52a:	60 7f       	andi	r22, 0xF0	; 240
     52c:	84 34       	cpi	r24, 0x44	; 68
     52e:	51 f1       	breq	.+84     	; 0x584 <DIO_vWriteHighNibble+0x5c>
     530:	85 34       	cpi	r24, 0x45	; 69
     532:	38 f4       	brcc	.+14     	; 0x542 <DIO_vWriteHighNibble+0x1a>
     534:	82 34       	cpi	r24, 0x42	; 66
     536:	c1 f0       	breq	.+48     	; 0x568 <DIO_vWriteHighNibble+0x40>
     538:	83 34       	cpi	r24, 0x43	; 67
     53a:	e8 f4       	brcc	.+58     	; 0x576 <DIO_vWriteHighNibble+0x4e>
     53c:	81 34       	cpi	r24, 0x41	; 65
     53e:	41 f5       	brne	.+80     	; 0x590 <DIO_vWriteHighNibble+0x68>
     540:	0c c0       	rjmp	.+24     	; 0x55a <DIO_vWriteHighNibble+0x32>
     542:	82 36       	cpi	r24, 0x62	; 98
     544:	89 f0       	breq	.+34     	; 0x568 <DIO_vWriteHighNibble+0x40>
     546:	83 36       	cpi	r24, 0x63	; 99
     548:	18 f4       	brcc	.+6      	; 0x550 <DIO_vWriteHighNibble+0x28>
     54a:	81 36       	cpi	r24, 0x61	; 97
     54c:	09 f5       	brne	.+66     	; 0x590 <DIO_vWriteHighNibble+0x68>
     54e:	05 c0       	rjmp	.+10     	; 0x55a <DIO_vWriteHighNibble+0x32>
     550:	83 36       	cpi	r24, 0x63	; 99
     552:	89 f0       	breq	.+34     	; 0x576 <DIO_vWriteHighNibble+0x4e>
     554:	84 36       	cpi	r24, 0x64	; 100
     556:	e1 f4       	brne	.+56     	; 0x590 <DIO_vWriteHighNibble+0x68>
     558:	15 c0       	rjmp	.+42     	; 0x584 <DIO_vWriteHighNibble+0x5c>
     55a:	8b b3       	in	r24, 0x1b	; 27
     55c:	8f 70       	andi	r24, 0x0F	; 15
     55e:	8b bb       	out	0x1b, r24	; 27
     560:	8b b3       	in	r24, 0x1b	; 27
     562:	86 2b       	or	r24, r22
     564:	8b bb       	out	0x1b, r24	; 27
     566:	08 95       	ret
     568:	88 b3       	in	r24, 0x18	; 24
     56a:	8f 70       	andi	r24, 0x0F	; 15
     56c:	88 bb       	out	0x18, r24	; 24
     56e:	88 b3       	in	r24, 0x18	; 24
     570:	86 2b       	or	r24, r22
     572:	88 bb       	out	0x18, r24	; 24
     574:	08 95       	ret
     576:	85 b3       	in	r24, 0x15	; 21
     578:	8f 70       	andi	r24, 0x0F	; 15
     57a:	85 bb       	out	0x15, r24	; 21
     57c:	85 b3       	in	r24, 0x15	; 21
     57e:	86 2b       	or	r24, r22
     580:	85 bb       	out	0x15, r24	; 21
     582:	08 95       	ret
     584:	82 b3       	in	r24, 0x12	; 18
     586:	8f 70       	andi	r24, 0x0F	; 15
     588:	82 bb       	out	0x12, r24	; 18
     58a:	82 b3       	in	r24, 0x12	; 18
     58c:	86 2b       	or	r24, r22
     58e:	82 bb       	out	0x12, r24	; 18
     590:	08 95       	ret

00000592 <KEYPAD_vInit>:
     592:	cf 93       	push	r28
     594:	c8 2f       	mov	r28, r24
     596:	6f e0       	ldi	r22, 0x0F	; 15
     598:	0e 94 7b 01 	call	0x2f6	; 0x2f6 <DIO_vSetPortDirection>
     59c:	8c 2f       	mov	r24, r28
     59e:	64 e0       	ldi	r22, 0x04	; 4
     5a0:	41 e0       	ldi	r20, 0x01	; 1
     5a2:	0e 94 01 02 	call	0x402	; 0x402 <DIO_vConnectInternalPullUp>
     5a6:	8c 2f       	mov	r24, r28
     5a8:	65 e0       	ldi	r22, 0x05	; 5
     5aa:	41 e0       	ldi	r20, 0x01	; 1
     5ac:	0e 94 01 02 	call	0x402	; 0x402 <DIO_vConnectInternalPullUp>
     5b0:	8c 2f       	mov	r24, r28
     5b2:	66 e0       	ldi	r22, 0x06	; 6
     5b4:	41 e0       	ldi	r20, 0x01	; 1
     5b6:	0e 94 01 02 	call	0x402	; 0x402 <DIO_vConnectInternalPullUp>
     5ba:	8c 2f       	mov	r24, r28
     5bc:	67 e0       	ldi	r22, 0x07	; 7
     5be:	41 e0       	ldi	r20, 0x01	; 1
     5c0:	0e 94 01 02 	call	0x402	; 0x402 <DIO_vConnectInternalPullUp>
     5c4:	cf 91       	pop	r28
     5c6:	08 95       	ret

000005c8 <KEYPAD_u8Read>:
     5c8:	df 92       	push	r13
     5ca:	ef 92       	push	r14
     5cc:	ff 92       	push	r15
     5ce:	0f 93       	push	r16
     5d0:	1f 93       	push	r17
     5d2:	cf 93       	push	r28
     5d4:	df 93       	push	r29
     5d6:	cd b7       	in	r28, 0x3d	; 61
     5d8:	de b7       	in	r29, 0x3e	; 62
     5da:	60 97       	sbiw	r28, 0x10	; 16
     5dc:	0f b6       	in	r0, 0x3f	; 63
     5de:	f8 94       	cli
     5e0:	de bf       	out	0x3e, r29	; 62
     5e2:	0f be       	out	0x3f, r0	; 63
     5e4:	cd bf       	out	0x3d, r28	; 61
     5e6:	f8 2e       	mov	r15, r24
     5e8:	de 01       	movw	r26, r28
     5ea:	11 96       	adiw	r26, 0x01	; 1
     5ec:	ee e6       	ldi	r30, 0x6E	; 110
     5ee:	f0 e0       	ldi	r31, 0x00	; 0
     5f0:	80 e1       	ldi	r24, 0x10	; 16
     5f2:	01 90       	ld	r0, Z+
     5f4:	0d 92       	st	X+, r0
     5f6:	81 50       	subi	r24, 0x01	; 1
     5f8:	e1 f7       	brne	.-8      	; 0x5f2 <KEYPAD_u8Read+0x2a>
     5fa:	00 e0       	ldi	r16, 0x00	; 0
     5fc:	10 e0       	ldi	r17, 0x00	; 0
     5fe:	8f 2d       	mov	r24, r15
     600:	6f e0       	ldi	r22, 0x0F	; 15
     602:	0e 94 60 02 	call	0x4c0	; 0x4c0 <DIO_vWriteLowNibble>
     606:	8f 2d       	mov	r24, r15
     608:	60 2f       	mov	r22, r16
     60a:	40 e0       	ldi	r20, 0x00	; 0
     60c:	0e 94 a8 00 	call	0x150	; 0x150 <DIO_vWritePin>
     610:	ee 24       	eor	r14, r14
     612:	94 e0       	ldi	r25, 0x04	; 4
     614:	d9 2e       	mov	r13, r25
     616:	de 0c       	add	r13, r14
     618:	8f 2d       	mov	r24, r15
     61a:	6d 2d       	mov	r22, r13
     61c:	0e 94 4a 01 	call	0x294	; 0x294 <DIO_u8ReadPin>
     620:	88 23       	and	r24, r24
     622:	b9 f4       	brne	.+46     	; 0x652 <KEYPAD_u8Read+0x8a>
     624:	8f 2d       	mov	r24, r15
     626:	6d 2d       	mov	r22, r13
     628:	0e 94 4a 01 	call	0x294	; 0x294 <DIO_u8ReadPin>
     62c:	88 23       	and	r24, r24
     62e:	d1 f3       	breq	.-12     	; 0x624 <KEYPAD_u8Read+0x5c>
     630:	f8 01       	movw	r30, r16
     632:	ee 0f       	add	r30, r30
     634:	ff 1f       	adc	r31, r31
     636:	ee 0f       	add	r30, r30
     638:	ff 1f       	adc	r31, r31
     63a:	ee 0d       	add	r30, r14
     63c:	f1 1d       	adc	r31, r1
     63e:	81 e0       	ldi	r24, 0x01	; 1
     640:	90 e0       	ldi	r25, 0x00	; 0
     642:	8c 0f       	add	r24, r28
     644:	9d 1f       	adc	r25, r29
     646:	e8 0f       	add	r30, r24
     648:	f9 1f       	adc	r31, r25
     64a:	80 81       	ld	r24, Z
     64c:	8f 3f       	cpi	r24, 0xFF	; 255
     64e:	29 f0       	breq	.+10     	; 0x65a <KEYPAD_u8Read+0x92>
     650:	0a c0       	rjmp	.+20     	; 0x666 <KEYPAD_u8Read+0x9e>
     652:	e3 94       	inc	r14
     654:	94 e0       	ldi	r25, 0x04	; 4
     656:	e9 16       	cp	r14, r25
     658:	e1 f6       	brne	.-72     	; 0x612 <KEYPAD_u8Read+0x4a>
     65a:	0f 5f       	subi	r16, 0xFF	; 255
     65c:	1f 4f       	sbci	r17, 0xFF	; 255
     65e:	04 30       	cpi	r16, 0x04	; 4
     660:	11 05       	cpc	r17, r1
     662:	69 f6       	brne	.-102    	; 0x5fe <KEYPAD_u8Read+0x36>
     664:	8f ef       	ldi	r24, 0xFF	; 255
     666:	60 96       	adiw	r28, 0x10	; 16
     668:	0f b6       	in	r0, 0x3f	; 63
     66a:	f8 94       	cli
     66c:	de bf       	out	0x3e, r29	; 62
     66e:	0f be       	out	0x3f, r0	; 63
     670:	cd bf       	out	0x3d, r28	; 61
     672:	df 91       	pop	r29
     674:	cf 91       	pop	r28
     676:	1f 91       	pop	r17
     678:	0f 91       	pop	r16
     67a:	ff 90       	pop	r15
     67c:	ef 90       	pop	r14
     67e:	df 90       	pop	r13
     680:	08 95       	ret

00000682 <LCD_vSendPulse>:
     682:	82 e4       	ldi	r24, 0x42	; 66
     684:	60 e0       	ldi	r22, 0x00	; 0
     686:	41 e0       	ldi	r20, 0x01	; 1
     688:	0e 94 a8 00 	call	0x150	; 0x150 <DIO_vWritePin>
     68c:	8f e9       	ldi	r24, 0x9F	; 159
     68e:	9f e0       	ldi	r25, 0x0F	; 15
     690:	01 97       	sbiw	r24, 0x01	; 1
     692:	f1 f7       	brne	.-4      	; 0x690 <LCD_vSendPulse+0xe>
     694:	00 c0       	rjmp	.+0      	; 0x696 <LCD_vSendPulse+0x14>
     696:	00 00       	nop
     698:	82 e4       	ldi	r24, 0x42	; 66
     69a:	60 e0       	ldi	r22, 0x00	; 0
     69c:	40 e0       	ldi	r20, 0x00	; 0
     69e:	0e 94 a8 00 	call	0x150	; 0x150 <DIO_vWritePin>
     6a2:	8f e9       	ldi	r24, 0x9F	; 159
     6a4:	9f e0       	ldi	r25, 0x0F	; 15
     6a6:	01 97       	sbiw	r24, 0x01	; 1
     6a8:	f1 f7       	brne	.-4      	; 0x6a6 <LCD_vSendPulse+0x24>
     6aa:	00 c0       	rjmp	.+0      	; 0x6ac <LCD_vSendPulse+0x2a>
     6ac:	00 00       	nop
     6ae:	08 95       	ret

000006b0 <LCD_vSendCMD>:
     6b0:	cf 93       	push	r28
     6b2:	c8 2f       	mov	r28, r24
     6b4:	82 e4       	ldi	r24, 0x42	; 66
     6b6:	61 e0       	ldi	r22, 0x01	; 1
     6b8:	40 e0       	ldi	r20, 0x00	; 0
     6ba:	0e 94 a8 00 	call	0x150	; 0x150 <DIO_vWritePin>
     6be:	6c 2f       	mov	r22, r28
     6c0:	62 95       	swap	r22
     6c2:	6f 70       	andi	r22, 0x0F	; 15
     6c4:	81 e4       	ldi	r24, 0x41	; 65
     6c6:	0e 94 94 02 	call	0x528	; 0x528 <DIO_vWriteHighNibble>
     6ca:	0e 94 41 03 	call	0x682	; 0x682 <LCD_vSendPulse>
     6ce:	81 e4       	ldi	r24, 0x41	; 65
     6d0:	6c 2f       	mov	r22, r28
     6d2:	0e 94 94 02 	call	0x528	; 0x528 <DIO_vWriteHighNibble>
     6d6:	0e 94 41 03 	call	0x682	; 0x682 <LCD_vSendPulse>
     6da:	8f ec       	ldi	r24, 0xCF	; 207
     6dc:	97 e0       	ldi	r25, 0x07	; 7
     6de:	01 97       	sbiw	r24, 0x01	; 1
     6e0:	f1 f7       	brne	.-4      	; 0x6de <LCD_vSendCMD+0x2e>
     6e2:	00 c0       	rjmp	.+0      	; 0x6e4 <LCD_vSendCMD+0x34>
     6e4:	00 00       	nop
     6e6:	cf 91       	pop	r28
     6e8:	08 95       	ret

000006ea <LCD_vInit>:
     6ea:	8f ef       	ldi	r24, 0xFF	; 255
     6ec:	91 ee       	ldi	r25, 0xE1	; 225
     6ee:	a4 e0       	ldi	r26, 0x04	; 4
     6f0:	81 50       	subi	r24, 0x01	; 1
     6f2:	90 40       	sbci	r25, 0x00	; 0
     6f4:	a0 40       	sbci	r26, 0x00	; 0
     6f6:	e1 f7       	brne	.-8      	; 0x6f0 <LCD_vInit+0x6>
     6f8:	00 c0       	rjmp	.+0      	; 0x6fa <LCD_vInit+0x10>
     6fa:	00 00       	nop
     6fc:	81 e4       	ldi	r24, 0x41	; 65
     6fe:	64 e0       	ldi	r22, 0x04	; 4
     700:	41 e0       	ldi	r20, 0x01	; 1
     702:	0e 94 49 00 	call	0x92	; 0x92 <DIO_vsetPinDir>
     706:	81 e4       	ldi	r24, 0x41	; 65
     708:	65 e0       	ldi	r22, 0x05	; 5
     70a:	41 e0       	ldi	r20, 0x01	; 1
     70c:	0e 94 49 00 	call	0x92	; 0x92 <DIO_vsetPinDir>
     710:	81 e4       	ldi	r24, 0x41	; 65
     712:	66 e0       	ldi	r22, 0x06	; 6
     714:	41 e0       	ldi	r20, 0x01	; 1
     716:	0e 94 49 00 	call	0x92	; 0x92 <DIO_vsetPinDir>
     71a:	81 e4       	ldi	r24, 0x41	; 65
     71c:	67 e0       	ldi	r22, 0x07	; 7
     71e:	41 e0       	ldi	r20, 0x01	; 1
     720:	0e 94 49 00 	call	0x92	; 0x92 <DIO_vsetPinDir>
     724:	82 e4       	ldi	r24, 0x42	; 66
     726:	60 e0       	ldi	r22, 0x00	; 0
     728:	41 e0       	ldi	r20, 0x01	; 1
     72a:	0e 94 49 00 	call	0x92	; 0x92 <DIO_vsetPinDir>
     72e:	82 e4       	ldi	r24, 0x42	; 66
     730:	61 e0       	ldi	r22, 0x01	; 1
     732:	41 e0       	ldi	r20, 0x01	; 1
     734:	0e 94 49 00 	call	0x92	; 0x92 <DIO_vsetPinDir>
     738:	82 e4       	ldi	r24, 0x42	; 66
     73a:	62 e0       	ldi	r22, 0x02	; 2
     73c:	41 e0       	ldi	r20, 0x01	; 1
     73e:	0e 94 49 00 	call	0x92	; 0x92 <DIO_vsetPinDir>
     742:	82 e4       	ldi	r24, 0x42	; 66
     744:	62 e0       	ldi	r22, 0x02	; 2
     746:	40 e0       	ldi	r20, 0x00	; 0
     748:	0e 94 a8 00 	call	0x150	; 0x150 <DIO_vWritePin>
     74c:	82 e0       	ldi	r24, 0x02	; 2
     74e:	0e 94 58 03 	call	0x6b0	; 0x6b0 <LCD_vSendCMD>
     752:	af e1       	ldi	r26, 0x1F	; 31
     754:	be e4       	ldi	r27, 0x4E	; 78
     756:	11 97       	sbiw	r26, 0x01	; 1
     758:	f1 f7       	brne	.-4      	; 0x756 <LCD_vInit+0x6c>
     75a:	00 c0       	rjmp	.+0      	; 0x75c <LCD_vInit+0x72>
     75c:	00 00       	nop
     75e:	88 e2       	ldi	r24, 0x28	; 40
     760:	0e 94 58 03 	call	0x6b0	; 0x6b0 <LCD_vSendCMD>
     764:	8f ec       	ldi	r24, 0xCF	; 207
     766:	97 e0       	ldi	r25, 0x07	; 7
     768:	01 97       	sbiw	r24, 0x01	; 1
     76a:	f1 f7       	brne	.-4      	; 0x768 <LCD_vInit+0x7e>
     76c:	00 c0       	rjmp	.+0      	; 0x76e <LCD_vInit+0x84>
     76e:	00 00       	nop
     770:	8e e0       	ldi	r24, 0x0E	; 14
     772:	0e 94 58 03 	call	0x6b0	; 0x6b0 <LCD_vSendCMD>
     776:	af ec       	ldi	r26, 0xCF	; 207
     778:	b7 e0       	ldi	r27, 0x07	; 7
     77a:	11 97       	sbiw	r26, 0x01	; 1
     77c:	f1 f7       	brne	.-4      	; 0x77a <LCD_vInit+0x90>
     77e:	00 c0       	rjmp	.+0      	; 0x780 <LCD_vInit+0x96>
     780:	00 00       	nop
     782:	81 e0       	ldi	r24, 0x01	; 1
     784:	0e 94 58 03 	call	0x6b0	; 0x6b0 <LCD_vSendCMD>
     788:	8f e1       	ldi	r24, 0x1F	; 31
     78a:	9e e4       	ldi	r25, 0x4E	; 78
     78c:	01 97       	sbiw	r24, 0x01	; 1
     78e:	f1 f7       	brne	.-4      	; 0x78c <LCD_vInit+0xa2>
     790:	00 c0       	rjmp	.+0      	; 0x792 <LCD_vInit+0xa8>
     792:	00 00       	nop
     794:	86 e0       	ldi	r24, 0x06	; 6
     796:	0e 94 58 03 	call	0x6b0	; 0x6b0 <LCD_vSendCMD>
     79a:	af ec       	ldi	r26, 0xCF	; 207
     79c:	b7 e0       	ldi	r27, 0x07	; 7
     79e:	11 97       	sbiw	r26, 0x01	; 1
     7a0:	f1 f7       	brne	.-4      	; 0x79e <LCD_vInit+0xb4>
     7a2:	00 c0       	rjmp	.+0      	; 0x7a4 <LCD_vInit+0xba>
     7a4:	00 00       	nop
     7a6:	08 95       	ret

000007a8 <LCD_vSendChar>:
     7a8:	cf 93       	push	r28
     7aa:	c8 2f       	mov	r28, r24
     7ac:	82 e4       	ldi	r24, 0x42	; 66
     7ae:	61 e0       	ldi	r22, 0x01	; 1
     7b0:	41 e0       	ldi	r20, 0x01	; 1
     7b2:	0e 94 a8 00 	call	0x150	; 0x150 <DIO_vWritePin>
     7b6:	6c 2f       	mov	r22, r28
     7b8:	62 95       	swap	r22
     7ba:	6f 70       	andi	r22, 0x0F	; 15
     7bc:	81 e4       	ldi	r24, 0x41	; 65
     7be:	0e 94 94 02 	call	0x528	; 0x528 <DIO_vWriteHighNibble>
     7c2:	0e 94 41 03 	call	0x682	; 0x682 <LCD_vSendPulse>
     7c6:	81 e4       	ldi	r24, 0x41	; 65
     7c8:	6c 2f       	mov	r22, r28
     7ca:	0e 94 94 02 	call	0x528	; 0x528 <DIO_vWriteHighNibble>
     7ce:	0e 94 41 03 	call	0x682	; 0x682 <LCD_vSendPulse>
     7d2:	cf 91       	pop	r28
     7d4:	08 95       	ret

000007d6 <LCD_vSendString>:
     7d6:	cf 93       	push	r28
     7d8:	df 93       	push	r29
     7da:	ec 01       	movw	r28, r24
     7dc:	02 c0       	rjmp	.+4      	; 0x7e2 <LCD_vSendString+0xc>
     7de:	0e 94 d4 03 	call	0x7a8	; 0x7a8 <LCD_vSendChar>
     7e2:	89 91       	ld	r24, Y+
     7e4:	88 23       	and	r24, r24
     7e6:	d9 f7       	brne	.-10     	; 0x7de <LCD_vSendString+0x8>
     7e8:	df 91       	pop	r29
     7ea:	cf 91       	pop	r28
     7ec:	08 95       	ret

000007ee <LCD_vClearScreen>:
     7ee:	81 e0       	ldi	r24, 0x01	; 1
     7f0:	0e 94 58 03 	call	0x6b0	; 0x6b0 <LCD_vSendCMD>
     7f4:	8f e1       	ldi	r24, 0x1F	; 31
     7f6:	9e e4       	ldi	r25, 0x4E	; 78
     7f8:	01 97       	sbiw	r24, 0x01	; 1
     7fa:	f1 f7       	brne	.-4      	; 0x7f8 <LCD_vClearScreen+0xa>
     7fc:	00 c0       	rjmp	.+0      	; 0x7fe <LCD_vClearScreen+0x10>
     7fe:	00 00       	nop
     800:	08 95       	ret

00000802 <LCD_vMoveCursor>:
     802:	98 2f       	mov	r25, r24
     804:	91 50       	subi	r25, 0x01	; 1
     806:	92 30       	cpi	r25, 0x02	; 2
     808:	68 f4       	brcc	.+26     	; 0x824 <LCD_vMoveCursor+0x22>
     80a:	69 32       	cpi	r22, 0x29	; 41
     80c:	58 f4       	brcc	.+22     	; 0x824 <LCD_vMoveCursor+0x22>
     80e:	66 23       	and	r22, r22
     810:	49 f0       	breq	.+18     	; 0x824 <LCD_vMoveCursor+0x22>
     812:	81 30       	cpi	r24, 0x01	; 1
     814:	19 f4       	brne	.+6      	; 0x81c <LCD_vMoveCursor+0x1a>
     816:	86 2f       	mov	r24, r22
     818:	81 58       	subi	r24, 0x81	; 129
     81a:	02 c0       	rjmp	.+4      	; 0x820 <LCD_vMoveCursor+0x1e>
     81c:	86 2f       	mov	r24, r22
     81e:	81 54       	subi	r24, 0x41	; 65
     820:	0e 94 58 03 	call	0x6b0	; 0x6b0 <LCD_vSendCMD>
     824:	08 95       	ret

00000826 <LCD_vSetCGRAMAddress>:
     826:	80 34       	cpi	r24, 0x40	; 64
     828:	10 f0       	brcs	.+4      	; 0x82e <LCD_vSetCGRAMAddress+0x8>
     82a:	80 e8       	ldi	r24, 0x80	; 128
     82c:	02 c0       	rjmp	.+4      	; 0x832 <LCD_vSetCGRAMAddress+0xc>
     82e:	80 64       	ori	r24, 0x40	; 64
     830:	8f 77       	andi	r24, 0x7F	; 127
     832:	0e 94 58 03 	call	0x6b0	; 0x6b0 <LCD_vSendCMD>
     836:	08 95       	ret

00000838 <__udivdi3>:
     838:	a4 e3       	ldi	r26, 0x34	; 52
     83a:	b0 e0       	ldi	r27, 0x00	; 0
     83c:	e2 e2       	ldi	r30, 0x22	; 34
     83e:	f4 e0       	ldi	r31, 0x04	; 4
     840:	0c 94 f5 17 	jmp	0x2fea	; 0x2fea <__prologue_saves__+0x2>
     844:	29 8b       	std	Y+17, r18	; 0x11
     846:	3a 8b       	std	Y+18, r19	; 0x12
     848:	4b 8b       	std	Y+19, r20	; 0x13
     84a:	5c 8b       	std	Y+20, r21	; 0x14
     84c:	6d 8b       	std	Y+21, r22	; 0x15
     84e:	7e 8b       	std	Y+22, r23	; 0x16
     850:	8f 8b       	std	Y+23, r24	; 0x17
     852:	98 8f       	std	Y+24, r25	; 0x18
     854:	a9 86       	std	Y+9, r10	; 0x09
     856:	ba 86       	std	Y+10, r11	; 0x0a
     858:	cb 86       	std	Y+11, r12	; 0x0b
     85a:	dc 86       	std	Y+12, r13	; 0x0c
     85c:	ed 86       	std	Y+13, r14	; 0x0d
     85e:	fe 86       	std	Y+14, r15	; 0x0e
     860:	0f 87       	std	Y+15, r16	; 0x0f
     862:	18 8b       	std	Y+16, r17	; 0x10
     864:	89 84       	ldd	r8, Y+9	; 0x09
     866:	9a 84       	ldd	r9, Y+10	; 0x0a
     868:	ab 84       	ldd	r10, Y+11	; 0x0b
     86a:	bc 84       	ldd	r11, Y+12	; 0x0c
     86c:	8d 85       	ldd	r24, Y+13	; 0x0d
     86e:	9e 85       	ldd	r25, Y+14	; 0x0e
     870:	af 85       	ldd	r26, Y+15	; 0x0f
     872:	b8 89       	ldd	r27, Y+16	; 0x10
     874:	09 89       	ldd	r16, Y+17	; 0x11
     876:	1a 89       	ldd	r17, Y+18	; 0x12
     878:	2b 89       	ldd	r18, Y+19	; 0x13
     87a:	3c 89       	ldd	r19, Y+20	; 0x14
     87c:	0d a3       	lds	r16, 0x5d
     87e:	1e a3       	lds	r17, 0x5e
     880:	2f a3       	lds	r18, 0x5f
     882:	38 a7       	lds	r19, 0x78
     884:	cd 88       	ldd	r12, Y+21	; 0x15
     886:	de 88       	ldd	r13, Y+22	; 0x16
     888:	ef 88       	ldd	r14, Y+23	; 0x17
     88a:	f8 8c       	ldd	r15, Y+24	; 0x18
     88c:	00 97       	sbiw	r24, 0x00	; 0
     88e:	a1 05       	cpc	r26, r1
     890:	b1 05       	cpc	r27, r1
     892:	09 f0       	breq	.+2      	; 0x896 <__stack+0x37>
     894:	b5 c3       	rjmp	.+1898   	; 0x1000 <__stack+0x7a1>
     896:	c8 14       	cp	r12, r8
     898:	d9 04       	cpc	r13, r9
     89a:	ea 04       	cpc	r14, r10
     89c:	fb 04       	cpc	r15, r11
     89e:	08 f0       	brcs	.+2      	; 0x8a2 <__stack+0x43>
     8a0:	4d c1       	rjmp	.+666    	; 0xb3c <__stack+0x2dd>
     8a2:	10 e0       	ldi	r17, 0x00	; 0
     8a4:	81 16       	cp	r8, r17
     8a6:	10 e0       	ldi	r17, 0x00	; 0
     8a8:	91 06       	cpc	r9, r17
     8aa:	11 e0       	ldi	r17, 0x01	; 1
     8ac:	a1 06       	cpc	r10, r17
     8ae:	10 e0       	ldi	r17, 0x00	; 0
     8b0:	b1 06       	cpc	r11, r17
     8b2:	58 f4       	brcc	.+22     	; 0x8ca <__stack+0x6b>
     8b4:	2f ef       	ldi	r18, 0xFF	; 255
     8b6:	82 16       	cp	r8, r18
     8b8:	91 04       	cpc	r9, r1
     8ba:	a1 04       	cpc	r10, r1
     8bc:	b1 04       	cpc	r11, r1
     8be:	09 f0       	breq	.+2      	; 0x8c2 <__stack+0x63>
     8c0:	90 f4       	brcc	.+36     	; 0x8e6 <__stack+0x87>
     8c2:	80 e0       	ldi	r24, 0x00	; 0
     8c4:	90 e0       	ldi	r25, 0x00	; 0
     8c6:	dc 01       	movw	r26, r24
     8c8:	17 c0       	rjmp	.+46     	; 0x8f8 <__stack+0x99>
     8ca:	30 e0       	ldi	r19, 0x00	; 0
     8cc:	83 16       	cp	r8, r19
     8ce:	30 e0       	ldi	r19, 0x00	; 0
     8d0:	93 06       	cpc	r9, r19
     8d2:	30 e0       	ldi	r19, 0x00	; 0
     8d4:	a3 06       	cpc	r10, r19
     8d6:	31 e0       	ldi	r19, 0x01	; 1
     8d8:	b3 06       	cpc	r11, r19
     8da:	50 f4       	brcc	.+20     	; 0x8f0 <__stack+0x91>
     8dc:	80 e1       	ldi	r24, 0x10	; 16
     8de:	90 e0       	ldi	r25, 0x00	; 0
     8e0:	a0 e0       	ldi	r26, 0x00	; 0
     8e2:	b0 e0       	ldi	r27, 0x00	; 0
     8e4:	09 c0       	rjmp	.+18     	; 0x8f8 <__stack+0x99>
     8e6:	88 e0       	ldi	r24, 0x08	; 8
     8e8:	90 e0       	ldi	r25, 0x00	; 0
     8ea:	a0 e0       	ldi	r26, 0x00	; 0
     8ec:	b0 e0       	ldi	r27, 0x00	; 0
     8ee:	04 c0       	rjmp	.+8      	; 0x8f8 <__stack+0x99>
     8f0:	88 e1       	ldi	r24, 0x18	; 24
     8f2:	90 e0       	ldi	r25, 0x00	; 0
     8f4:	a0 e0       	ldi	r26, 0x00	; 0
     8f6:	b0 e0       	ldi	r27, 0x00	; 0
     8f8:	b5 01       	movw	r22, r10
     8fa:	a4 01       	movw	r20, r8
     8fc:	08 2e       	mov	r0, r24
     8fe:	04 c0       	rjmp	.+8      	; 0x908 <__stack+0xa9>
     900:	76 95       	lsr	r23
     902:	67 95       	ror	r22
     904:	57 95       	ror	r21
     906:	47 95       	ror	r20
     908:	0a 94       	dec	r0
     90a:	d2 f7       	brpl	.-12     	; 0x900 <__stack+0xa1>
     90c:	fa 01       	movw	r30, r20
     90e:	e2 58       	subi	r30, 0x82	; 130
     910:	ff 4f       	sbci	r31, 0xFF	; 255
     912:	20 81       	ld	r18, Z
     914:	40 e2       	ldi	r20, 0x20	; 32
     916:	50 e0       	ldi	r21, 0x00	; 0
     918:	60 e0       	ldi	r22, 0x00	; 0
     91a:	70 e0       	ldi	r23, 0x00	; 0
     91c:	48 1b       	sub	r20, r24
     91e:	59 0b       	sbc	r21, r25
     920:	6a 0b       	sbc	r22, r26
     922:	7b 0b       	sbc	r23, r27
     924:	42 1b       	sub	r20, r18
     926:	51 09       	sbc	r21, r1
     928:	61 09       	sbc	r22, r1
     92a:	71 09       	sbc	r23, r1
     92c:	41 15       	cp	r20, r1
     92e:	51 05       	cpc	r21, r1
     930:	61 05       	cpc	r22, r1
     932:	71 05       	cpc	r23, r1
     934:	a1 f1       	breq	.+104    	; 0x99e <__stack+0x13f>
     936:	04 2e       	mov	r0, r20
     938:	04 c0       	rjmp	.+8      	; 0x942 <__stack+0xe3>
     93a:	88 0c       	add	r8, r8
     93c:	99 1c       	adc	r9, r9
     93e:	aa 1c       	adc	r10, r10
     940:	bb 1c       	adc	r11, r11
     942:	0a 94       	dec	r0
     944:	d2 f7       	brpl	.-12     	; 0x93a <__stack+0xdb>
     946:	97 01       	movw	r18, r14
     948:	86 01       	movw	r16, r12
     94a:	04 2e       	mov	r0, r20
     94c:	04 c0       	rjmp	.+8      	; 0x956 <__stack+0xf7>
     94e:	00 0f       	add	r16, r16
     950:	11 1f       	adc	r17, r17
     952:	22 1f       	adc	r18, r18
     954:	33 1f       	adc	r19, r19
     956:	0a 94       	dec	r0
     958:	d2 f7       	brpl	.-12     	; 0x94e <__stack+0xef>
     95a:	80 e2       	ldi	r24, 0x20	; 32
     95c:	90 e0       	ldi	r25, 0x00	; 0
     95e:	84 1b       	sub	r24, r20
     960:	95 0b       	sbc	r25, r21
     962:	cd a0       	lds	r28, 0x8d
     964:	de a0       	lds	r29, 0x8e
     966:	ef a0       	lds	r30, 0x8f
     968:	f8 a4       	lds	r31, 0xa8
     96a:	04 c0       	rjmp	.+8      	; 0x974 <__stack+0x115>
     96c:	f6 94       	lsr	r15
     96e:	e7 94       	ror	r14
     970:	d7 94       	ror	r13
     972:	c7 94       	ror	r12
     974:	8a 95       	dec	r24
     976:	d2 f7       	brpl	.-12     	; 0x96c <__stack+0x10d>
     978:	c0 2a       	or	r12, r16
     97a:	d1 2a       	or	r13, r17
     97c:	e2 2a       	or	r14, r18
     97e:	f3 2a       	or	r15, r19
     980:	0d a1       	lds	r16, 0x4d
     982:	1e a1       	lds	r17, 0x4e
     984:	2f a1       	lds	r18, 0x4f
     986:	38 a5       	lds	r19, 0x68
     988:	04 c0       	rjmp	.+8      	; 0x992 <__stack+0x133>
     98a:	00 0f       	add	r16, r16
     98c:	11 1f       	adc	r17, r17
     98e:	22 1f       	adc	r18, r18
     990:	33 1f       	adc	r19, r19
     992:	4a 95       	dec	r20
     994:	d2 f7       	brpl	.-12     	; 0x98a <__stack+0x12b>
     996:	0d a3       	lds	r16, 0x5d
     998:	1e a3       	lds	r17, 0x5e
     99a:	2f a3       	lds	r18, 0x5f
     99c:	38 a7       	lds	r19, 0x78
     99e:	25 01       	movw	r4, r10
     9a0:	66 24       	eor	r6, r6
     9a2:	77 24       	eor	r7, r7
     9a4:	95 01       	movw	r18, r10
     9a6:	84 01       	movw	r16, r8
     9a8:	20 70       	andi	r18, 0x00	; 0
     9aa:	30 70       	andi	r19, 0x00	; 0
     9ac:	09 a3       	lds	r16, 0x59
     9ae:	1a a3       	lds	r17, 0x5a
     9b0:	2b a3       	lds	r18, 0x5b
     9b2:	3c a3       	lds	r19, 0x5c
     9b4:	c7 01       	movw	r24, r14
     9b6:	b6 01       	movw	r22, r12
     9b8:	a3 01       	movw	r20, r6
     9ba:	92 01       	movw	r18, r4
     9bc:	0e 94 d2 17 	call	0x2fa4	; 0x2fa4 <__udivmodsi4>
     9c0:	2d 8f       	std	Y+29, r18	; 0x1d
     9c2:	3e 8f       	std	Y+30, r19	; 0x1e
     9c4:	4f 8f       	std	Y+31, r20	; 0x1f
     9c6:	58 a3       	lds	r21, 0x58
     9c8:	69 8f       	std	Y+25, r22	; 0x19
     9ca:	7a 8f       	std	Y+26, r23	; 0x1a
     9cc:	8b 8f       	std	Y+27, r24	; 0x1b
     9ce:	9c 8f       	std	Y+28, r25	; 0x1c
     9d0:	c7 01       	movw	r24, r14
     9d2:	b6 01       	movw	r22, r12
     9d4:	a3 01       	movw	r20, r6
     9d6:	92 01       	movw	r18, r4
     9d8:	0e 94 d2 17 	call	0x2fa4	; 0x2fa4 <__udivmodsi4>
     9dc:	ca 01       	movw	r24, r20
     9de:	b9 01       	movw	r22, r18
     9e0:	29 a1       	lds	r18, 0x49
     9e2:	3a a1       	lds	r19, 0x4a
     9e4:	4b a1       	lds	r20, 0x4b
     9e6:	5c a1       	lds	r21, 0x4c
     9e8:	0e 94 b3 17 	call	0x2f66	; 0x2f66 <__mulsi3>
     9ec:	ab 01       	movw	r20, r22
     9ee:	bc 01       	movw	r22, r24
     9f0:	09 8d       	ldd	r16, Y+25	; 0x19
     9f2:	1a 8d       	ldd	r17, Y+26	; 0x1a
     9f4:	2b 8d       	ldd	r18, Y+27	; 0x1b
     9f6:	3c 8d       	ldd	r19, Y+28	; 0x1c
     9f8:	78 01       	movw	r14, r16
     9fa:	dd 24       	eor	r13, r13
     9fc:	cc 24       	eor	r12, r12
     9fe:	0d a1       	lds	r16, 0x4d
     a00:	1e a1       	lds	r17, 0x4e
     a02:	2f a1       	lds	r18, 0x4f
     a04:	38 a5       	lds	r19, 0x68
     a06:	c9 01       	movw	r24, r18
     a08:	aa 27       	eor	r26, r26
     a0a:	bb 27       	eor	r27, r27
     a0c:	c8 2a       	or	r12, r24
     a0e:	d9 2a       	or	r13, r25
     a10:	ea 2a       	or	r14, r26
     a12:	fb 2a       	or	r15, r27
     a14:	0d 8d       	ldd	r16, Y+29	; 0x1d
     a16:	1e 8d       	ldd	r17, Y+30	; 0x1e
     a18:	2f 8d       	ldd	r18, Y+31	; 0x1f
     a1a:	38 a1       	lds	r19, 0x48
     a1c:	c4 16       	cp	r12, r20
     a1e:	d5 06       	cpc	r13, r21
     a20:	e6 06       	cpc	r14, r22
     a22:	f7 06       	cpc	r15, r23
     a24:	38 f5       	brcc	.+78     	; 0xa74 <__stack+0x215>
     a26:	01 50       	subi	r16, 0x01	; 1
     a28:	10 40       	sbci	r17, 0x00	; 0
     a2a:	20 40       	sbci	r18, 0x00	; 0
     a2c:	30 40       	sbci	r19, 0x00	; 0
     a2e:	09 8f       	std	Y+25, r16	; 0x19
     a30:	1a 8f       	std	Y+26, r17	; 0x1a
     a32:	2b 8f       	std	Y+27, r18	; 0x1b
     a34:	3c 8f       	std	Y+28, r19	; 0x1c
     a36:	c8 0c       	add	r12, r8
     a38:	d9 1c       	adc	r13, r9
     a3a:	ea 1c       	adc	r14, r10
     a3c:	fb 1c       	adc	r15, r11
     a3e:	c8 14       	cp	r12, r8
     a40:	d9 04       	cpc	r13, r9
     a42:	ea 04       	cpc	r14, r10
     a44:	fb 04       	cpc	r15, r11
     a46:	d0 f0       	brcs	.+52     	; 0xa7c <__stack+0x21d>
     a48:	c4 16       	cp	r12, r20
     a4a:	d5 06       	cpc	r13, r21
     a4c:	e6 06       	cpc	r14, r22
     a4e:	f7 06       	cpc	r15, r23
     a50:	a8 f4       	brcc	.+42     	; 0xa7c <__stack+0x21d>
     a52:	0d 8d       	ldd	r16, Y+29	; 0x1d
     a54:	1e 8d       	ldd	r17, Y+30	; 0x1e
     a56:	2f 8d       	ldd	r18, Y+31	; 0x1f
     a58:	38 a1       	lds	r19, 0x48
     a5a:	02 50       	subi	r16, 0x02	; 2
     a5c:	10 40       	sbci	r17, 0x00	; 0
     a5e:	20 40       	sbci	r18, 0x00	; 0
     a60:	30 40       	sbci	r19, 0x00	; 0
     a62:	09 8f       	std	Y+25, r16	; 0x19
     a64:	1a 8f       	std	Y+26, r17	; 0x1a
     a66:	2b 8f       	std	Y+27, r18	; 0x1b
     a68:	3c 8f       	std	Y+28, r19	; 0x1c
     a6a:	c8 0c       	add	r12, r8
     a6c:	d9 1c       	adc	r13, r9
     a6e:	ea 1c       	adc	r14, r10
     a70:	fb 1c       	adc	r15, r11
     a72:	04 c0       	rjmp	.+8      	; 0xa7c <__stack+0x21d>
     a74:	09 8f       	std	Y+25, r16	; 0x19
     a76:	1a 8f       	std	Y+26, r17	; 0x1a
     a78:	2b 8f       	std	Y+27, r18	; 0x1b
     a7a:	3c 8f       	std	Y+28, r19	; 0x1c
     a7c:	c4 1a       	sub	r12, r20
     a7e:	d5 0a       	sbc	r13, r21
     a80:	e6 0a       	sbc	r14, r22
     a82:	f7 0a       	sbc	r15, r23
     a84:	c7 01       	movw	r24, r14
     a86:	b6 01       	movw	r22, r12
     a88:	a3 01       	movw	r20, r6
     a8a:	92 01       	movw	r18, r4
     a8c:	0e 94 d2 17 	call	0x2fa4	; 0x2fa4 <__udivmodsi4>
     a90:	2d 8f       	std	Y+29, r18	; 0x1d
     a92:	3e 8f       	std	Y+30, r19	; 0x1e
     a94:	4f 8f       	std	Y+31, r20	; 0x1f
     a96:	58 a3       	lds	r21, 0x58
     a98:	69 a7       	lds	r22, 0x79
     a9a:	7a a7       	lds	r23, 0x7a
     a9c:	8b a7       	lds	r24, 0x7b
     a9e:	9c a7       	lds	r25, 0x7c
     aa0:	c7 01       	movw	r24, r14
     aa2:	b6 01       	movw	r22, r12
     aa4:	a3 01       	movw	r20, r6
     aa6:	92 01       	movw	r18, r4
     aa8:	0e 94 d2 17 	call	0x2fa4	; 0x2fa4 <__udivmodsi4>
     aac:	ca 01       	movw	r24, r20
     aae:	b9 01       	movw	r22, r18
     ab0:	29 a1       	lds	r18, 0x49
     ab2:	3a a1       	lds	r19, 0x4a
     ab4:	4b a1       	lds	r20, 0x4b
     ab6:	5c a1       	lds	r21, 0x4c
     ab8:	0e 94 b3 17 	call	0x2f66	; 0x2f66 <__mulsi3>
     abc:	6b 01       	movw	r12, r22
     abe:	7c 01       	movw	r14, r24
     ac0:	49 a5       	lds	r20, 0x69
     ac2:	5a a5       	lds	r21, 0x6a
     ac4:	6b a5       	lds	r22, 0x6b
     ac6:	7c a5       	lds	r23, 0x6c
     ac8:	9a 01       	movw	r18, r20
     aca:	11 27       	eor	r17, r17
     acc:	00 27       	eor	r16, r16
     ace:	4d a1       	lds	r20, 0x4d
     ad0:	5e a1       	lds	r21, 0x4e
     ad2:	6f a1       	lds	r22, 0x4f
     ad4:	78 a5       	lds	r23, 0x68
     ad6:	60 70       	andi	r22, 0x00	; 0
     ad8:	70 70       	andi	r23, 0x00	; 0
     ada:	04 2b       	or	r16, r20
     adc:	15 2b       	or	r17, r21
     ade:	26 2b       	or	r18, r22
     ae0:	37 2b       	or	r19, r23
     ae2:	8d 8d       	ldd	r24, Y+29	; 0x1d
     ae4:	9e 8d       	ldd	r25, Y+30	; 0x1e
     ae6:	af 8d       	ldd	r26, Y+31	; 0x1f
     ae8:	b8 a1       	lds	r27, 0x48
     aea:	0c 15       	cp	r16, r12
     aec:	1d 05       	cpc	r17, r13
     aee:	2e 05       	cpc	r18, r14
     af0:	3f 05       	cpc	r19, r15
     af2:	c0 f4       	brcc	.+48     	; 0xb24 <__stack+0x2c5>
     af4:	01 97       	sbiw	r24, 0x01	; 1
     af6:	a1 09       	sbc	r26, r1
     af8:	b1 09       	sbc	r27, r1
     afa:	08 0d       	add	r16, r8
     afc:	19 1d       	adc	r17, r9
     afe:	2a 1d       	adc	r18, r10
     b00:	3b 1d       	adc	r19, r11
     b02:	08 15       	cp	r16, r8
     b04:	19 05       	cpc	r17, r9
     b06:	2a 05       	cpc	r18, r10
     b08:	3b 05       	cpc	r19, r11
     b0a:	60 f0       	brcs	.+24     	; 0xb24 <__stack+0x2c5>
     b0c:	0c 15       	cp	r16, r12
     b0e:	1d 05       	cpc	r17, r13
     b10:	2e 05       	cpc	r18, r14
     b12:	3f 05       	cpc	r19, r15
     b14:	38 f4       	brcc	.+14     	; 0xb24 <__stack+0x2c5>
     b16:	8d 8d       	ldd	r24, Y+29	; 0x1d
     b18:	9e 8d       	ldd	r25, Y+30	; 0x1e
     b1a:	af 8d       	ldd	r26, Y+31	; 0x1f
     b1c:	b8 a1       	lds	r27, 0x48
     b1e:	02 97       	sbiw	r24, 0x02	; 2
     b20:	a1 09       	sbc	r26, r1
     b22:	b1 09       	sbc	r27, r1
     b24:	09 8d       	ldd	r16, Y+25	; 0x19
     b26:	1a 8d       	ldd	r17, Y+26	; 0x1a
     b28:	2b 8d       	ldd	r18, Y+27	; 0x1b
     b2a:	3c 8d       	ldd	r19, Y+28	; 0x1c
     b2c:	78 01       	movw	r14, r16
     b2e:	dd 24       	eor	r13, r13
     b30:	cc 24       	eor	r12, r12
     b32:	c8 2a       	or	r12, r24
     b34:	d9 2a       	or	r13, r25
     b36:	ea 2a       	or	r14, r26
     b38:	fb 2a       	or	r15, r27
     b3a:	a5 c4       	rjmp	.+2378   	; 0x1486 <__stack+0xc27>
     b3c:	81 14       	cp	r8, r1
     b3e:	91 04       	cpc	r9, r1
     b40:	a1 04       	cpc	r10, r1
     b42:	b1 04       	cpc	r11, r1
     b44:	51 f4       	brne	.+20     	; 0xb5a <__stack+0x2fb>
     b46:	61 e0       	ldi	r22, 0x01	; 1
     b48:	70 e0       	ldi	r23, 0x00	; 0
     b4a:	80 e0       	ldi	r24, 0x00	; 0
     b4c:	90 e0       	ldi	r25, 0x00	; 0
     b4e:	a5 01       	movw	r20, r10
     b50:	94 01       	movw	r18, r8
     b52:	0e 94 d2 17 	call	0x2fa4	; 0x2fa4 <__udivmodsi4>
     b56:	49 01       	movw	r8, r18
     b58:	5a 01       	movw	r10, r20
     b5a:	10 e0       	ldi	r17, 0x00	; 0
     b5c:	81 16       	cp	r8, r17
     b5e:	10 e0       	ldi	r17, 0x00	; 0
     b60:	91 06       	cpc	r9, r17
     b62:	11 e0       	ldi	r17, 0x01	; 1
     b64:	a1 06       	cpc	r10, r17
     b66:	10 e0       	ldi	r17, 0x00	; 0
     b68:	b1 06       	cpc	r11, r17
     b6a:	58 f4       	brcc	.+22     	; 0xb82 <__stack+0x323>
     b6c:	2f ef       	ldi	r18, 0xFF	; 255
     b6e:	82 16       	cp	r8, r18
     b70:	91 04       	cpc	r9, r1
     b72:	a1 04       	cpc	r10, r1
     b74:	b1 04       	cpc	r11, r1
     b76:	09 f0       	breq	.+2      	; 0xb7a <__stack+0x31b>
     b78:	90 f4       	brcc	.+36     	; 0xb9e <__stack+0x33f>
     b7a:	80 e0       	ldi	r24, 0x00	; 0
     b7c:	90 e0       	ldi	r25, 0x00	; 0
     b7e:	dc 01       	movw	r26, r24
     b80:	17 c0       	rjmp	.+46     	; 0xbb0 <__stack+0x351>
     b82:	30 e0       	ldi	r19, 0x00	; 0
     b84:	83 16       	cp	r8, r19
     b86:	30 e0       	ldi	r19, 0x00	; 0
     b88:	93 06       	cpc	r9, r19
     b8a:	30 e0       	ldi	r19, 0x00	; 0
     b8c:	a3 06       	cpc	r10, r19
     b8e:	31 e0       	ldi	r19, 0x01	; 1
     b90:	b3 06       	cpc	r11, r19
     b92:	50 f4       	brcc	.+20     	; 0xba8 <__stack+0x349>
     b94:	80 e1       	ldi	r24, 0x10	; 16
     b96:	90 e0       	ldi	r25, 0x00	; 0
     b98:	a0 e0       	ldi	r26, 0x00	; 0
     b9a:	b0 e0       	ldi	r27, 0x00	; 0
     b9c:	09 c0       	rjmp	.+18     	; 0xbb0 <__stack+0x351>
     b9e:	88 e0       	ldi	r24, 0x08	; 8
     ba0:	90 e0       	ldi	r25, 0x00	; 0
     ba2:	a0 e0       	ldi	r26, 0x00	; 0
     ba4:	b0 e0       	ldi	r27, 0x00	; 0
     ba6:	04 c0       	rjmp	.+8      	; 0xbb0 <__stack+0x351>
     ba8:	88 e1       	ldi	r24, 0x18	; 24
     baa:	90 e0       	ldi	r25, 0x00	; 0
     bac:	a0 e0       	ldi	r26, 0x00	; 0
     bae:	b0 e0       	ldi	r27, 0x00	; 0
     bb0:	b5 01       	movw	r22, r10
     bb2:	a4 01       	movw	r20, r8
     bb4:	08 2e       	mov	r0, r24
     bb6:	04 c0       	rjmp	.+8      	; 0xbc0 <__stack+0x361>
     bb8:	76 95       	lsr	r23
     bba:	67 95       	ror	r22
     bbc:	57 95       	ror	r21
     bbe:	47 95       	ror	r20
     bc0:	0a 94       	dec	r0
     bc2:	d2 f7       	brpl	.-12     	; 0xbb8 <__stack+0x359>
     bc4:	fa 01       	movw	r30, r20
     bc6:	e2 58       	subi	r30, 0x82	; 130
     bc8:	ff 4f       	sbci	r31, 0xFF	; 255
     bca:	20 81       	ld	r18, Z
     bcc:	ac 01       	movw	r20, r24
     bce:	bd 01       	movw	r22, r26
     bd0:	42 0f       	add	r20, r18
     bd2:	51 1d       	adc	r21, r1
     bd4:	61 1d       	adc	r22, r1
     bd6:	71 1d       	adc	r23, r1
     bd8:	80 e2       	ldi	r24, 0x20	; 32
     bda:	90 e0       	ldi	r25, 0x00	; 0
     bdc:	a0 e0       	ldi	r26, 0x00	; 0
     bde:	b0 e0       	ldi	r27, 0x00	; 0
     be0:	84 1b       	sub	r24, r20
     be2:	95 0b       	sbc	r25, r21
     be4:	a6 0b       	sbc	r26, r22
     be6:	b7 0b       	sbc	r27, r23
     be8:	51 f4       	brne	.+20     	; 0xbfe <__stack+0x39f>
     bea:	c8 18       	sub	r12, r8
     bec:	d9 08       	sbc	r13, r9
     bee:	ea 08       	sbc	r14, r10
     bf0:	fb 08       	sbc	r15, r11
     bf2:	f1 e0       	ldi	r31, 0x01	; 1
     bf4:	4f 2e       	mov	r4, r31
     bf6:	51 2c       	mov	r5, r1
     bf8:	61 2c       	mov	r6, r1
     bfa:	71 2c       	mov	r7, r1
     bfc:	24 c1       	rjmp	.+584    	; 0xe46 <__stack+0x5e7>
     bfe:	08 2e       	mov	r0, r24
     c00:	04 c0       	rjmp	.+8      	; 0xc0a <__stack+0x3ab>
     c02:	88 0c       	add	r8, r8
     c04:	99 1c       	adc	r9, r9
     c06:	aa 1c       	adc	r10, r10
     c08:	bb 1c       	adc	r11, r11
     c0a:	0a 94       	dec	r0
     c0c:	d2 f7       	brpl	.-12     	; 0xc02 <__stack+0x3a3>
     c0e:	97 01       	movw	r18, r14
     c10:	86 01       	movw	r16, r12
     c12:	04 2e       	mov	r0, r20
     c14:	04 c0       	rjmp	.+8      	; 0xc1e <__stack+0x3bf>
     c16:	36 95       	lsr	r19
     c18:	27 95       	ror	r18
     c1a:	17 95       	ror	r17
     c1c:	07 95       	ror	r16
     c1e:	0a 94       	dec	r0
     c20:	d2 f7       	brpl	.-12     	; 0xc16 <__stack+0x3b7>
     c22:	09 a3       	lds	r16, 0x59
     c24:	1a a3       	lds	r17, 0x5a
     c26:	2b a3       	lds	r18, 0x5b
     c28:	3c a3       	lds	r19, 0x5c
     c2a:	97 01       	movw	r18, r14
     c2c:	86 01       	movw	r16, r12
     c2e:	08 2e       	mov	r0, r24
     c30:	04 c0       	rjmp	.+8      	; 0xc3a <__stack+0x3db>
     c32:	00 0f       	add	r16, r16
     c34:	11 1f       	adc	r17, r17
     c36:	22 1f       	adc	r18, r18
     c38:	33 1f       	adc	r19, r19
     c3a:	0a 94       	dec	r0
     c3c:	d2 f7       	brpl	.-12     	; 0xc32 <__stack+0x3d3>
     c3e:	0d 8f       	std	Y+29, r16	; 0x1d
     c40:	1e 8f       	std	Y+30, r17	; 0x1e
     c42:	2f 8f       	std	Y+31, r18	; 0x1f
     c44:	38 a3       	lds	r19, 0x58
     c46:	0d a1       	lds	r16, 0x4d
     c48:	1e a1       	lds	r17, 0x4e
     c4a:	2f a1       	lds	r18, 0x4f
     c4c:	38 a5       	lds	r19, 0x68
     c4e:	04 c0       	rjmp	.+8      	; 0xc58 <__stack+0x3f9>
     c50:	36 95       	lsr	r19
     c52:	27 95       	ror	r18
     c54:	17 95       	ror	r17
     c56:	07 95       	ror	r16
     c58:	4a 95       	dec	r20
     c5a:	d2 f7       	brpl	.-12     	; 0xc50 <__stack+0x3f1>
     c5c:	b9 01       	movw	r22, r18
     c5e:	a8 01       	movw	r20, r16
     c60:	0d 8d       	ldd	r16, Y+29	; 0x1d
     c62:	1e 8d       	ldd	r17, Y+30	; 0x1e
     c64:	2f 8d       	ldd	r18, Y+31	; 0x1f
     c66:	38 a1       	lds	r19, 0x48
     c68:	04 2b       	or	r16, r20
     c6a:	15 2b       	or	r17, r21
     c6c:	26 2b       	or	r18, r22
     c6e:	37 2b       	or	r19, r23
     c70:	0d 8f       	std	Y+29, r16	; 0x1d
     c72:	1e 8f       	std	Y+30, r17	; 0x1e
     c74:	2f 8f       	std	Y+31, r18	; 0x1f
     c76:	38 a3       	lds	r19, 0x58
     c78:	0d a1       	lds	r16, 0x4d
     c7a:	1e a1       	lds	r17, 0x4e
     c7c:	2f a1       	lds	r18, 0x4f
     c7e:	38 a5       	lds	r19, 0x68
     c80:	04 c0       	rjmp	.+8      	; 0xc8a <__stack+0x42b>
     c82:	00 0f       	add	r16, r16
     c84:	11 1f       	adc	r17, r17
     c86:	22 1f       	adc	r18, r18
     c88:	33 1f       	adc	r19, r19
     c8a:	8a 95       	dec	r24
     c8c:	d2 f7       	brpl	.-12     	; 0xc82 <__stack+0x423>
     c8e:	0d a3       	lds	r16, 0x5d
     c90:	1e a3       	lds	r17, 0x5e
     c92:	2f a3       	lds	r18, 0x5f
     c94:	38 a7       	lds	r19, 0x78
     c96:	25 01       	movw	r4, r10
     c98:	66 24       	eor	r6, r6
     c9a:	77 24       	eor	r7, r7
     c9c:	95 01       	movw	r18, r10
     c9e:	84 01       	movw	r16, r8
     ca0:	20 70       	andi	r18, 0x00	; 0
     ca2:	30 70       	andi	r19, 0x00	; 0
     ca4:	09 a7       	lds	r16, 0x79
     ca6:	1a a7       	lds	r17, 0x7a
     ca8:	2b a7       	lds	r18, 0x7b
     caa:	3c a7       	lds	r19, 0x7c
     cac:	69 a1       	lds	r22, 0x49
     cae:	7a a1       	lds	r23, 0x4a
     cb0:	8b a1       	lds	r24, 0x4b
     cb2:	9c a1       	lds	r25, 0x4c
     cb4:	a3 01       	movw	r20, r6
     cb6:	92 01       	movw	r18, r4
     cb8:	0e 94 d2 17 	call	0x2fa4	; 0x2fa4 <__udivmodsi4>
     cbc:	29 8f       	std	Y+25, r18	; 0x19
     cbe:	3a 8f       	std	Y+26, r19	; 0x1a
     cc0:	4b 8f       	std	Y+27, r20	; 0x1b
     cc2:	5c 8f       	std	Y+28, r21	; 0x1c
     cc4:	6b 01       	movw	r12, r22
     cc6:	7c 01       	movw	r14, r24
     cc8:	69 a1       	lds	r22, 0x49
     cca:	7a a1       	lds	r23, 0x4a
     ccc:	8b a1       	lds	r24, 0x4b
     cce:	9c a1       	lds	r25, 0x4c
     cd0:	a3 01       	movw	r20, r6
     cd2:	92 01       	movw	r18, r4
     cd4:	0e 94 d2 17 	call	0x2fa4	; 0x2fa4 <__udivmodsi4>
     cd8:	ca 01       	movw	r24, r20
     cda:	b9 01       	movw	r22, r18
     cdc:	29 a5       	lds	r18, 0x69
     cde:	3a a5       	lds	r19, 0x6a
     ce0:	4b a5       	lds	r20, 0x6b
     ce2:	5c a5       	lds	r21, 0x6c
     ce4:	0e 94 b3 17 	call	0x2f66	; 0x2f66 <__mulsi3>
     ce8:	ab 01       	movw	r20, r22
     cea:	bc 01       	movw	r22, r24
     cec:	76 01       	movw	r14, r12
     cee:	dd 24       	eor	r13, r13
     cf0:	cc 24       	eor	r12, r12
     cf2:	0d 8d       	ldd	r16, Y+29	; 0x1d
     cf4:	1e 8d       	ldd	r17, Y+30	; 0x1e
     cf6:	2f 8d       	ldd	r18, Y+31	; 0x1f
     cf8:	38 a1       	lds	r19, 0x48
     cfa:	c9 01       	movw	r24, r18
     cfc:	aa 27       	eor	r26, r26
     cfe:	bb 27       	eor	r27, r27
     d00:	c8 2a       	or	r12, r24
     d02:	d9 2a       	or	r13, r25
     d04:	ea 2a       	or	r14, r26
     d06:	fb 2a       	or	r15, r27
     d08:	09 8d       	ldd	r16, Y+25	; 0x19
     d0a:	1a 8d       	ldd	r17, Y+26	; 0x1a
     d0c:	2b 8d       	ldd	r18, Y+27	; 0x1b
     d0e:	3c 8d       	ldd	r19, Y+28	; 0x1c
     d10:	c4 16       	cp	r12, r20
     d12:	d5 06       	cpc	r13, r21
     d14:	e6 06       	cpc	r14, r22
     d16:	f7 06       	cpc	r15, r23
     d18:	38 f5       	brcc	.+78     	; 0xd68 <__stack+0x509>
     d1a:	01 50       	subi	r16, 0x01	; 1
     d1c:	10 40       	sbci	r17, 0x00	; 0
     d1e:	20 40       	sbci	r18, 0x00	; 0
     d20:	30 40       	sbci	r19, 0x00	; 0
     d22:	09 a3       	lds	r16, 0x59
     d24:	1a a3       	lds	r17, 0x5a
     d26:	2b a3       	lds	r18, 0x5b
     d28:	3c a3       	lds	r19, 0x5c
     d2a:	c8 0c       	add	r12, r8
     d2c:	d9 1c       	adc	r13, r9
     d2e:	ea 1c       	adc	r14, r10
     d30:	fb 1c       	adc	r15, r11
     d32:	c8 14       	cp	r12, r8
     d34:	d9 04       	cpc	r13, r9
     d36:	ea 04       	cpc	r14, r10
     d38:	fb 04       	cpc	r15, r11
     d3a:	d0 f0       	brcs	.+52     	; 0xd70 <__stack+0x511>
     d3c:	c4 16       	cp	r12, r20
     d3e:	d5 06       	cpc	r13, r21
     d40:	e6 06       	cpc	r14, r22
     d42:	f7 06       	cpc	r15, r23
     d44:	a8 f4       	brcc	.+42     	; 0xd70 <__stack+0x511>
     d46:	09 8d       	ldd	r16, Y+25	; 0x19
     d48:	1a 8d       	ldd	r17, Y+26	; 0x1a
     d4a:	2b 8d       	ldd	r18, Y+27	; 0x1b
     d4c:	3c 8d       	ldd	r19, Y+28	; 0x1c
     d4e:	02 50       	subi	r16, 0x02	; 2
     d50:	10 40       	sbci	r17, 0x00	; 0
     d52:	20 40       	sbci	r18, 0x00	; 0
     d54:	30 40       	sbci	r19, 0x00	; 0
     d56:	09 a3       	lds	r16, 0x59
     d58:	1a a3       	lds	r17, 0x5a
     d5a:	2b a3       	lds	r18, 0x5b
     d5c:	3c a3       	lds	r19, 0x5c
     d5e:	c8 0c       	add	r12, r8
     d60:	d9 1c       	adc	r13, r9
     d62:	ea 1c       	adc	r14, r10
     d64:	fb 1c       	adc	r15, r11
     d66:	04 c0       	rjmp	.+8      	; 0xd70 <__stack+0x511>
     d68:	09 a3       	lds	r16, 0x59
     d6a:	1a a3       	lds	r17, 0x5a
     d6c:	2b a3       	lds	r18, 0x5b
     d6e:	3c a3       	lds	r19, 0x5c
     d70:	c4 1a       	sub	r12, r20
     d72:	d5 0a       	sbc	r13, r21
     d74:	e6 0a       	sbc	r14, r22
     d76:	f7 0a       	sbc	r15, r23
     d78:	c7 01       	movw	r24, r14
     d7a:	b6 01       	movw	r22, r12
     d7c:	a3 01       	movw	r20, r6
     d7e:	92 01       	movw	r18, r4
     d80:	0e 94 d2 17 	call	0x2fa4	; 0x2fa4 <__udivmodsi4>
     d84:	29 8f       	std	Y+25, r18	; 0x19
     d86:	3a 8f       	std	Y+26, r19	; 0x1a
     d88:	4b 8f       	std	Y+27, r20	; 0x1b
     d8a:	5c 8f       	std	Y+28, r21	; 0x1c
     d8c:	6d a7       	lds	r22, 0x7d
     d8e:	7e a7       	lds	r23, 0x7e
     d90:	8f a7       	lds	r24, 0x7f
     d92:	98 ab       	sts	0x58, r25
     d94:	c7 01       	movw	r24, r14
     d96:	b6 01       	movw	r22, r12
     d98:	a3 01       	movw	r20, r6
     d9a:	92 01       	movw	r18, r4
     d9c:	0e 94 d2 17 	call	0x2fa4	; 0x2fa4 <__udivmodsi4>
     da0:	ca 01       	movw	r24, r20
     da2:	b9 01       	movw	r22, r18
     da4:	29 a5       	lds	r18, 0x69
     da6:	3a a5       	lds	r19, 0x6a
     da8:	4b a5       	lds	r20, 0x6b
     daa:	5c a5       	lds	r21, 0x6c
     dac:	0e 94 b3 17 	call	0x2f66	; 0x2f66 <__mulsi3>
     db0:	8b 01       	movw	r16, r22
     db2:	9c 01       	movw	r18, r24
     db4:	4d a5       	lds	r20, 0x6d
     db6:	5e a5       	lds	r21, 0x6e
     db8:	6f a5       	lds	r22, 0x6f
     dba:	78 a9       	sts	0x48, r23
     dbc:	da 01       	movw	r26, r20
     dbe:	99 27       	eor	r25, r25
     dc0:	88 27       	eor	r24, r24
     dc2:	4d 8d       	ldd	r20, Y+29	; 0x1d
     dc4:	5e 8d       	ldd	r21, Y+30	; 0x1e
     dc6:	6f 8d       	ldd	r22, Y+31	; 0x1f
     dc8:	78 a1       	lds	r23, 0x48
     dca:	60 70       	andi	r22, 0x00	; 0
     dcc:	70 70       	andi	r23, 0x00	; 0
     dce:	84 2b       	or	r24, r20
     dd0:	95 2b       	or	r25, r21
     dd2:	a6 2b       	or	r26, r22
     dd4:	b7 2b       	or	r27, r23
     dd6:	49 8d       	ldd	r20, Y+25	; 0x19
     dd8:	5a 8d       	ldd	r21, Y+26	; 0x1a
     dda:	6b 8d       	ldd	r22, Y+27	; 0x1b
     ddc:	7c 8d       	ldd	r23, Y+28	; 0x1c
     dde:	80 17       	cp	r24, r16
     de0:	91 07       	cpc	r25, r17
     de2:	a2 07       	cpc	r26, r18
     de4:	b3 07       	cpc	r27, r19
     de6:	f0 f4       	brcc	.+60     	; 0xe24 <__stack+0x5c5>
     de8:	41 50       	subi	r20, 0x01	; 1
     dea:	50 40       	sbci	r21, 0x00	; 0
     dec:	60 40       	sbci	r22, 0x00	; 0
     dee:	70 40       	sbci	r23, 0x00	; 0
     df0:	88 0d       	add	r24, r8
     df2:	99 1d       	adc	r25, r9
     df4:	aa 1d       	adc	r26, r10
     df6:	bb 1d       	adc	r27, r11
     df8:	88 15       	cp	r24, r8
     dfa:	99 05       	cpc	r25, r9
     dfc:	aa 05       	cpc	r26, r10
     dfe:	bb 05       	cpc	r27, r11
     e00:	88 f0       	brcs	.+34     	; 0xe24 <__stack+0x5c5>
     e02:	80 17       	cp	r24, r16
     e04:	91 07       	cpc	r25, r17
     e06:	a2 07       	cpc	r26, r18
     e08:	b3 07       	cpc	r27, r19
     e0a:	60 f4       	brcc	.+24     	; 0xe24 <__stack+0x5c5>
     e0c:	49 8d       	ldd	r20, Y+25	; 0x19
     e0e:	5a 8d       	ldd	r21, Y+26	; 0x1a
     e10:	6b 8d       	ldd	r22, Y+27	; 0x1b
     e12:	7c 8d       	ldd	r23, Y+28	; 0x1c
     e14:	42 50       	subi	r20, 0x02	; 2
     e16:	50 40       	sbci	r21, 0x00	; 0
     e18:	60 40       	sbci	r22, 0x00	; 0
     e1a:	70 40       	sbci	r23, 0x00	; 0
     e1c:	88 0d       	add	r24, r8
     e1e:	99 1d       	adc	r25, r9
     e20:	aa 1d       	adc	r26, r10
     e22:	bb 1d       	adc	r27, r11
     e24:	6c 01       	movw	r12, r24
     e26:	7d 01       	movw	r14, r26
     e28:	c0 1a       	sub	r12, r16
     e2a:	d1 0a       	sbc	r13, r17
     e2c:	e2 0a       	sbc	r14, r18
     e2e:	f3 0a       	sbc	r15, r19
     e30:	09 a1       	lds	r16, 0x49
     e32:	1a a1       	lds	r17, 0x4a
     e34:	2b a1       	lds	r18, 0x4b
     e36:	3c a1       	lds	r19, 0x4c
     e38:	38 01       	movw	r6, r16
     e3a:	55 24       	eor	r5, r5
     e3c:	44 24       	eor	r4, r4
     e3e:	44 2a       	or	r4, r20
     e40:	55 2a       	or	r5, r21
     e42:	66 2a       	or	r6, r22
     e44:	77 2a       	or	r7, r23
     e46:	85 01       	movw	r16, r10
     e48:	22 27       	eor	r18, r18
     e4a:	33 27       	eor	r19, r19
     e4c:	0d 8f       	std	Y+29, r16	; 0x1d
     e4e:	1e 8f       	std	Y+30, r17	; 0x1e
     e50:	2f 8f       	std	Y+31, r18	; 0x1f
     e52:	38 a3       	lds	r19, 0x58
     e54:	95 01       	movw	r18, r10
     e56:	84 01       	movw	r16, r8
     e58:	20 70       	andi	r18, 0x00	; 0
     e5a:	30 70       	andi	r19, 0x00	; 0
     e5c:	09 a7       	lds	r16, 0x79
     e5e:	1a a7       	lds	r17, 0x7a
     e60:	2b a7       	lds	r18, 0x7b
     e62:	3c a7       	lds	r19, 0x7c
     e64:	c7 01       	movw	r24, r14
     e66:	b6 01       	movw	r22, r12
     e68:	2d 8d       	ldd	r18, Y+29	; 0x1d
     e6a:	3e 8d       	ldd	r19, Y+30	; 0x1e
     e6c:	4f 8d       	ldd	r20, Y+31	; 0x1f
     e6e:	58 a1       	lds	r21, 0x48
     e70:	0e 94 d2 17 	call	0x2fa4	; 0x2fa4 <__udivmodsi4>
     e74:	29 8f       	std	Y+25, r18	; 0x19
     e76:	3a 8f       	std	Y+26, r19	; 0x1a
     e78:	4b 8f       	std	Y+27, r20	; 0x1b
     e7a:	5c 8f       	std	Y+28, r21	; 0x1c
     e7c:	69 a3       	lds	r22, 0x59
     e7e:	7a a3       	lds	r23, 0x5a
     e80:	8b a3       	lds	r24, 0x5b
     e82:	9c a3       	lds	r25, 0x5c
     e84:	c7 01       	movw	r24, r14
     e86:	b6 01       	movw	r22, r12
     e88:	2d 8d       	ldd	r18, Y+29	; 0x1d
     e8a:	3e 8d       	ldd	r19, Y+30	; 0x1e
     e8c:	4f 8d       	ldd	r20, Y+31	; 0x1f
     e8e:	58 a1       	lds	r21, 0x48
     e90:	0e 94 d2 17 	call	0x2fa4	; 0x2fa4 <__udivmodsi4>
     e94:	ca 01       	movw	r24, r20
     e96:	b9 01       	movw	r22, r18
     e98:	29 a5       	lds	r18, 0x69
     e9a:	3a a5       	lds	r19, 0x6a
     e9c:	4b a5       	lds	r20, 0x6b
     e9e:	5c a5       	lds	r21, 0x6c
     ea0:	0e 94 b3 17 	call	0x2f66	; 0x2f66 <__mulsi3>
     ea4:	ab 01       	movw	r20, r22
     ea6:	bc 01       	movw	r22, r24
     ea8:	09 a1       	lds	r16, 0x49
     eaa:	1a a1       	lds	r17, 0x4a
     eac:	2b a1       	lds	r18, 0x4b
     eae:	3c a1       	lds	r19, 0x4c
     eb0:	78 01       	movw	r14, r16
     eb2:	dd 24       	eor	r13, r13
     eb4:	cc 24       	eor	r12, r12
     eb6:	0d a1       	lds	r16, 0x4d
     eb8:	1e a1       	lds	r17, 0x4e
     eba:	2f a1       	lds	r18, 0x4f
     ebc:	38 a5       	lds	r19, 0x68
     ebe:	c9 01       	movw	r24, r18
     ec0:	aa 27       	eor	r26, r26
     ec2:	bb 27       	eor	r27, r27
     ec4:	c8 2a       	or	r12, r24
     ec6:	d9 2a       	or	r13, r25
     ec8:	ea 2a       	or	r14, r26
     eca:	fb 2a       	or	r15, r27
     ecc:	09 8d       	ldd	r16, Y+25	; 0x19
     ece:	1a 8d       	ldd	r17, Y+26	; 0x1a
     ed0:	2b 8d       	ldd	r18, Y+27	; 0x1b
     ed2:	3c 8d       	ldd	r19, Y+28	; 0x1c
     ed4:	c4 16       	cp	r12, r20
     ed6:	d5 06       	cpc	r13, r21
     ed8:	e6 06       	cpc	r14, r22
     eda:	f7 06       	cpc	r15, r23
     edc:	38 f5       	brcc	.+78     	; 0xf2c <__stack+0x6cd>
     ede:	01 50       	subi	r16, 0x01	; 1
     ee0:	10 40       	sbci	r17, 0x00	; 0
     ee2:	20 40       	sbci	r18, 0x00	; 0
     ee4:	30 40       	sbci	r19, 0x00	; 0
     ee6:	09 a3       	lds	r16, 0x59
     ee8:	1a a3       	lds	r17, 0x5a
     eea:	2b a3       	lds	r18, 0x5b
     eec:	3c a3       	lds	r19, 0x5c
     eee:	c8 0c       	add	r12, r8
     ef0:	d9 1c       	adc	r13, r9
     ef2:	ea 1c       	adc	r14, r10
     ef4:	fb 1c       	adc	r15, r11
     ef6:	c8 14       	cp	r12, r8
     ef8:	d9 04       	cpc	r13, r9
     efa:	ea 04       	cpc	r14, r10
     efc:	fb 04       	cpc	r15, r11
     efe:	d0 f0       	brcs	.+52     	; 0xf34 <__stack+0x6d5>
     f00:	c4 16       	cp	r12, r20
     f02:	d5 06       	cpc	r13, r21
     f04:	e6 06       	cpc	r14, r22
     f06:	f7 06       	cpc	r15, r23
     f08:	a8 f4       	brcc	.+42     	; 0xf34 <__stack+0x6d5>
     f0a:	09 8d       	ldd	r16, Y+25	; 0x19
     f0c:	1a 8d       	ldd	r17, Y+26	; 0x1a
     f0e:	2b 8d       	ldd	r18, Y+27	; 0x1b
     f10:	3c 8d       	ldd	r19, Y+28	; 0x1c
     f12:	02 50       	subi	r16, 0x02	; 2
     f14:	10 40       	sbci	r17, 0x00	; 0
     f16:	20 40       	sbci	r18, 0x00	; 0
     f18:	30 40       	sbci	r19, 0x00	; 0
     f1a:	09 a3       	lds	r16, 0x59
     f1c:	1a a3       	lds	r17, 0x5a
     f1e:	2b a3       	lds	r18, 0x5b
     f20:	3c a3       	lds	r19, 0x5c
     f22:	c8 0c       	add	r12, r8
     f24:	d9 1c       	adc	r13, r9
     f26:	ea 1c       	adc	r14, r10
     f28:	fb 1c       	adc	r15, r11
     f2a:	04 c0       	rjmp	.+8      	; 0xf34 <__stack+0x6d5>
     f2c:	09 a3       	lds	r16, 0x59
     f2e:	1a a3       	lds	r17, 0x5a
     f30:	2b a3       	lds	r18, 0x5b
     f32:	3c a3       	lds	r19, 0x5c
     f34:	c4 1a       	sub	r12, r20
     f36:	d5 0a       	sbc	r13, r21
     f38:	e6 0a       	sbc	r14, r22
     f3a:	f7 0a       	sbc	r15, r23
     f3c:	c7 01       	movw	r24, r14
     f3e:	b6 01       	movw	r22, r12
     f40:	2d 8d       	ldd	r18, Y+29	; 0x1d
     f42:	3e 8d       	ldd	r19, Y+30	; 0x1e
     f44:	4f 8d       	ldd	r20, Y+31	; 0x1f
     f46:	58 a1       	lds	r21, 0x48
     f48:	0e 94 d2 17 	call	0x2fa4	; 0x2fa4 <__udivmodsi4>
     f4c:	29 8f       	std	Y+25, r18	; 0x19
     f4e:	3a 8f       	std	Y+26, r19	; 0x1a
     f50:	4b 8f       	std	Y+27, r20	; 0x1b
     f52:	5c 8f       	std	Y+28, r21	; 0x1c
     f54:	6d a7       	lds	r22, 0x7d
     f56:	7e a7       	lds	r23, 0x7e
     f58:	8f a7       	lds	r24, 0x7f
     f5a:	98 ab       	sts	0x58, r25
     f5c:	c7 01       	movw	r24, r14
     f5e:	b6 01       	movw	r22, r12
     f60:	2d 8d       	ldd	r18, Y+29	; 0x1d
     f62:	3e 8d       	ldd	r19, Y+30	; 0x1e
     f64:	4f 8d       	ldd	r20, Y+31	; 0x1f
     f66:	58 a1       	lds	r21, 0x48
     f68:	0e 94 d2 17 	call	0x2fa4	; 0x2fa4 <__udivmodsi4>
     f6c:	ca 01       	movw	r24, r20
     f6e:	b9 01       	movw	r22, r18
     f70:	29 a5       	lds	r18, 0x69
     f72:	3a a5       	lds	r19, 0x6a
     f74:	4b a5       	lds	r20, 0x6b
     f76:	5c a5       	lds	r21, 0x6c
     f78:	0e 94 b3 17 	call	0x2f66	; 0x2f66 <__mulsi3>
     f7c:	8b 01       	movw	r16, r22
     f7e:	9c 01       	movw	r18, r24
     f80:	4d a5       	lds	r20, 0x6d
     f82:	5e a5       	lds	r21, 0x6e
     f84:	6f a5       	lds	r22, 0x6f
     f86:	78 a9       	sts	0x48, r23
     f88:	da 01       	movw	r26, r20
     f8a:	99 27       	eor	r25, r25
     f8c:	88 27       	eor	r24, r24
     f8e:	4d a1       	lds	r20, 0x4d
     f90:	5e a1       	lds	r21, 0x4e
     f92:	6f a1       	lds	r22, 0x4f
     f94:	78 a5       	lds	r23, 0x68
     f96:	60 70       	andi	r22, 0x00	; 0
     f98:	70 70       	andi	r23, 0x00	; 0
     f9a:	84 2b       	or	r24, r20
     f9c:	95 2b       	or	r25, r21
     f9e:	a6 2b       	or	r26, r22
     fa0:	b7 2b       	or	r27, r23
     fa2:	49 8d       	ldd	r20, Y+25	; 0x19
     fa4:	5a 8d       	ldd	r21, Y+26	; 0x1a
     fa6:	6b 8d       	ldd	r22, Y+27	; 0x1b
     fa8:	7c 8d       	ldd	r23, Y+28	; 0x1c
     faa:	80 17       	cp	r24, r16
     fac:	91 07       	cpc	r25, r17
     fae:	a2 07       	cpc	r26, r18
     fb0:	b3 07       	cpc	r27, r19
     fb2:	d0 f4       	brcc	.+52     	; 0xfe8 <__stack+0x789>
     fb4:	41 50       	subi	r20, 0x01	; 1
     fb6:	50 40       	sbci	r21, 0x00	; 0
     fb8:	60 40       	sbci	r22, 0x00	; 0
     fba:	70 40       	sbci	r23, 0x00	; 0
     fbc:	88 0d       	add	r24, r8
     fbe:	99 1d       	adc	r25, r9
     fc0:	aa 1d       	adc	r26, r10
     fc2:	bb 1d       	adc	r27, r11
     fc4:	88 15       	cp	r24, r8
     fc6:	99 05       	cpc	r25, r9
     fc8:	aa 05       	cpc	r26, r10
     fca:	bb 05       	cpc	r27, r11
     fcc:	68 f0       	brcs	.+26     	; 0xfe8 <__stack+0x789>
     fce:	80 17       	cp	r24, r16
     fd0:	91 07       	cpc	r25, r17
     fd2:	a2 07       	cpc	r26, r18
     fd4:	b3 07       	cpc	r27, r19
     fd6:	40 f4       	brcc	.+16     	; 0xfe8 <__stack+0x789>
     fd8:	49 8d       	ldd	r20, Y+25	; 0x19
     fda:	5a 8d       	ldd	r21, Y+26	; 0x1a
     fdc:	6b 8d       	ldd	r22, Y+27	; 0x1b
     fde:	7c 8d       	ldd	r23, Y+28	; 0x1c
     fe0:	42 50       	subi	r20, 0x02	; 2
     fe2:	50 40       	sbci	r21, 0x00	; 0
     fe4:	60 40       	sbci	r22, 0x00	; 0
     fe6:	70 40       	sbci	r23, 0x00	; 0
     fe8:	09 a1       	lds	r16, 0x49
     fea:	1a a1       	lds	r17, 0x4a
     fec:	2b a1       	lds	r18, 0x4b
     fee:	3c a1       	lds	r19, 0x4c
     ff0:	78 01       	movw	r14, r16
     ff2:	dd 24       	eor	r13, r13
     ff4:	cc 24       	eor	r12, r12
     ff6:	c4 2a       	or	r12, r20
     ff8:	d5 2a       	or	r13, r21
     ffa:	e6 2a       	or	r14, r22
     ffc:	f7 2a       	or	r15, r23
     ffe:	46 c2       	rjmp	.+1164   	; 0x148c <__stack+0xc2d>
    1000:	c8 16       	cp	r12, r24
    1002:	d9 06       	cpc	r13, r25
    1004:	ea 06       	cpc	r14, r26
    1006:	fb 06       	cpc	r15, r27
    1008:	08 f4       	brcc	.+2      	; 0x100c <__stack+0x7ad>
    100a:	2d c2       	rjmp	.+1114   	; 0x1466 <__stack+0xc07>
    100c:	80 30       	cpi	r24, 0x00	; 0
    100e:	10 e0       	ldi	r17, 0x00	; 0
    1010:	91 07       	cpc	r25, r17
    1012:	11 e0       	ldi	r17, 0x01	; 1
    1014:	a1 07       	cpc	r26, r17
    1016:	10 e0       	ldi	r17, 0x00	; 0
    1018:	b1 07       	cpc	r27, r17
    101a:	50 f4       	brcc	.+20     	; 0x1030 <__stack+0x7d1>
    101c:	8f 3f       	cpi	r24, 0xFF	; 255
    101e:	91 05       	cpc	r25, r1
    1020:	a1 05       	cpc	r26, r1
    1022:	b1 05       	cpc	r27, r1
    1024:	09 f0       	breq	.+2      	; 0x1028 <__stack+0x7c9>
    1026:	88 f4       	brcc	.+34     	; 0x104a <__stack+0x7eb>
    1028:	00 e0       	ldi	r16, 0x00	; 0
    102a:	10 e0       	ldi	r17, 0x00	; 0
    102c:	98 01       	movw	r18, r16
    102e:	16 c0       	rjmp	.+44     	; 0x105c <__stack+0x7fd>
    1030:	80 30       	cpi	r24, 0x00	; 0
    1032:	20 e0       	ldi	r18, 0x00	; 0
    1034:	92 07       	cpc	r25, r18
    1036:	20 e0       	ldi	r18, 0x00	; 0
    1038:	a2 07       	cpc	r26, r18
    103a:	21 e0       	ldi	r18, 0x01	; 1
    103c:	b2 07       	cpc	r27, r18
    103e:	50 f4       	brcc	.+20     	; 0x1054 <__stack+0x7f5>
    1040:	00 e1       	ldi	r16, 0x10	; 16
    1042:	10 e0       	ldi	r17, 0x00	; 0
    1044:	20 e0       	ldi	r18, 0x00	; 0
    1046:	30 e0       	ldi	r19, 0x00	; 0
    1048:	09 c0       	rjmp	.+18     	; 0x105c <__stack+0x7fd>
    104a:	08 e0       	ldi	r16, 0x08	; 8
    104c:	10 e0       	ldi	r17, 0x00	; 0
    104e:	20 e0       	ldi	r18, 0x00	; 0
    1050:	30 e0       	ldi	r19, 0x00	; 0
    1052:	04 c0       	rjmp	.+8      	; 0x105c <__stack+0x7fd>
    1054:	08 e1       	ldi	r16, 0x18	; 24
    1056:	10 e0       	ldi	r17, 0x00	; 0
    1058:	20 e0       	ldi	r18, 0x00	; 0
    105a:	30 e0       	ldi	r19, 0x00	; 0
    105c:	ac 01       	movw	r20, r24
    105e:	bd 01       	movw	r22, r26
    1060:	00 2e       	mov	r0, r16
    1062:	04 c0       	rjmp	.+8      	; 0x106c <__stack+0x80d>
    1064:	76 95       	lsr	r23
    1066:	67 95       	ror	r22
    1068:	57 95       	ror	r21
    106a:	47 95       	ror	r20
    106c:	0a 94       	dec	r0
    106e:	d2 f7       	brpl	.-12     	; 0x1064 <__stack+0x805>
    1070:	fa 01       	movw	r30, r20
    1072:	e2 58       	subi	r30, 0x82	; 130
    1074:	ff 4f       	sbci	r31, 0xFF	; 255
    1076:	40 81       	ld	r20, Z
    1078:	04 0f       	add	r16, r20
    107a:	11 1d       	adc	r17, r1
    107c:	21 1d       	adc	r18, r1
    107e:	31 1d       	adc	r19, r1
    1080:	40 e2       	ldi	r20, 0x20	; 32
    1082:	50 e0       	ldi	r21, 0x00	; 0
    1084:	60 e0       	ldi	r22, 0x00	; 0
    1086:	70 e0       	ldi	r23, 0x00	; 0
    1088:	40 1b       	sub	r20, r16
    108a:	51 0b       	sbc	r21, r17
    108c:	62 0b       	sbc	r22, r18
    108e:	73 0b       	sbc	r23, r19
    1090:	a1 f4       	brne	.+40     	; 0x10ba <__stack+0x85b>
    1092:	8c 15       	cp	r24, r12
    1094:	9d 05       	cpc	r25, r13
    1096:	ae 05       	cpc	r26, r14
    1098:	bf 05       	cpc	r27, r15
    109a:	08 f4       	brcc	.+2      	; 0x109e <__stack+0x83f>
    109c:	eb c1       	rjmp	.+982    	; 0x1474 <__stack+0xc15>
    109e:	0d a1       	lds	r16, 0x4d
    10a0:	1e a1       	lds	r17, 0x4e
    10a2:	2f a1       	lds	r18, 0x4f
    10a4:	38 a5       	lds	r19, 0x68
    10a6:	44 24       	eor	r4, r4
    10a8:	55 24       	eor	r5, r5
    10aa:	32 01       	movw	r6, r4
    10ac:	08 15       	cp	r16, r8
    10ae:	19 05       	cpc	r17, r9
    10b0:	2a 05       	cpc	r18, r10
    10b2:	3b 05       	cpc	r19, r11
    10b4:	08 f0       	brcs	.+2      	; 0x10b8 <__stack+0x859>
    10b6:	e1 c1       	rjmp	.+962    	; 0x147a <__stack+0xc1b>
    10b8:	d9 c1       	rjmp	.+946    	; 0x146c <__stack+0xc0d>
    10ba:	34 2e       	mov	r3, r20
    10bc:	2c 01       	movw	r4, r24
    10be:	3d 01       	movw	r6, r26
    10c0:	04 c0       	rjmp	.+8      	; 0x10ca <__stack+0x86b>
    10c2:	44 0c       	add	r4, r4
    10c4:	55 1c       	adc	r5, r5
    10c6:	66 1c       	adc	r6, r6
    10c8:	77 1c       	adc	r7, r7
    10ca:	4a 95       	dec	r20
    10cc:	d2 f7       	brpl	.-12     	; 0x10c2 <__stack+0x863>
    10ce:	d5 01       	movw	r26, r10
    10d0:	c4 01       	movw	r24, r8
    10d2:	00 2e       	mov	r0, r16
    10d4:	04 c0       	rjmp	.+8      	; 0x10de <__stack+0x87f>
    10d6:	b6 95       	lsr	r27
    10d8:	a7 95       	ror	r26
    10da:	97 95       	ror	r25
    10dc:	87 95       	ror	r24
    10de:	0a 94       	dec	r0
    10e0:	d2 f7       	brpl	.-12     	; 0x10d6 <__stack+0x877>
    10e2:	48 2a       	or	r4, r24
    10e4:	59 2a       	or	r5, r25
    10e6:	6a 2a       	or	r6, r26
    10e8:	7b 2a       	or	r7, r27
    10ea:	a5 01       	movw	r20, r10
    10ec:	94 01       	movw	r18, r8
    10ee:	03 2c       	mov	r0, r3
    10f0:	04 c0       	rjmp	.+8      	; 0x10fa <__stack+0x89b>
    10f2:	22 0f       	add	r18, r18
    10f4:	33 1f       	adc	r19, r19
    10f6:	44 1f       	adc	r20, r20
    10f8:	55 1f       	adc	r21, r21
    10fa:	0a 94       	dec	r0
    10fc:	d2 f7       	brpl	.-12     	; 0x10f2 <__stack+0x893>
    10fe:	29 a7       	lds	r18, 0x79
    1100:	3a a7       	lds	r19, 0x7a
    1102:	4b a7       	lds	r20, 0x7b
    1104:	5c a7       	lds	r21, 0x7c
    1106:	b7 01       	movw	r22, r14
    1108:	a6 01       	movw	r20, r12
    110a:	00 2e       	mov	r0, r16
    110c:	04 c0       	rjmp	.+8      	; 0x1116 <__stack+0x8b7>
    110e:	76 95       	lsr	r23
    1110:	67 95       	ror	r22
    1112:	57 95       	ror	r21
    1114:	47 95       	ror	r20
    1116:	0a 94       	dec	r0
    1118:	d2 f7       	brpl	.-12     	; 0x110e <__stack+0x8af>
    111a:	49 a3       	lds	r20, 0x59
    111c:	5a a3       	lds	r21, 0x5a
    111e:	6b a3       	lds	r22, 0x5b
    1120:	7c a3       	lds	r23, 0x5c
    1122:	c7 01       	movw	r24, r14
    1124:	b6 01       	movw	r22, r12
    1126:	03 2c       	mov	r0, r3
    1128:	04 c0       	rjmp	.+8      	; 0x1132 <__stack+0x8d3>
    112a:	66 0f       	add	r22, r22
    112c:	77 1f       	adc	r23, r23
    112e:	88 1f       	adc	r24, r24
    1130:	99 1f       	adc	r25, r25
    1132:	0a 94       	dec	r0
    1134:	d2 f7       	brpl	.-12     	; 0x112a <__stack+0x8cb>
    1136:	6d 8f       	std	Y+29, r22	; 0x1d
    1138:	7e 8f       	std	Y+30, r23	; 0x1e
    113a:	8f 8f       	std	Y+31, r24	; 0x1f
    113c:	98 a3       	lds	r25, 0x58
    113e:	8d a1       	lds	r24, 0x4d
    1140:	9e a1       	lds	r25, 0x4e
    1142:	af a1       	lds	r26, 0x4f
    1144:	b8 a5       	lds	r27, 0x68
    1146:	04 c0       	rjmp	.+8      	; 0x1150 <__stack+0x8f1>
    1148:	b6 95       	lsr	r27
    114a:	a7 95       	ror	r26
    114c:	97 95       	ror	r25
    114e:	87 95       	ror	r24
    1150:	0a 95       	dec	r16
    1152:	d2 f7       	brpl	.-12     	; 0x1148 <__stack+0x8e9>
    1154:	4d 8d       	ldd	r20, Y+29	; 0x1d
    1156:	5e 8d       	ldd	r21, Y+30	; 0x1e
    1158:	6f 8d       	ldd	r22, Y+31	; 0x1f
    115a:	78 a1       	lds	r23, 0x48
    115c:	48 2b       	or	r20, r24
    115e:	59 2b       	or	r21, r25
    1160:	6a 2b       	or	r22, r26
    1162:	7b 2b       	or	r23, r27
    1164:	4d 8f       	std	Y+29, r20	; 0x1d
    1166:	5e 8f       	std	Y+30, r21	; 0x1e
    1168:	6f 8f       	std	Y+31, r22	; 0x1f
    116a:	78 a3       	lds	r23, 0x58
    116c:	43 01       	movw	r8, r6
    116e:	aa 24       	eor	r10, r10
    1170:	bb 24       	eor	r11, r11
    1172:	93 01       	movw	r18, r6
    1174:	82 01       	movw	r16, r4
    1176:	20 70       	andi	r18, 0x00	; 0
    1178:	30 70       	andi	r19, 0x00	; 0
    117a:	0d a7       	lds	r16, 0x7d
    117c:	1e a7       	lds	r17, 0x7e
    117e:	2f a7       	lds	r18, 0x7f
    1180:	38 ab       	sts	0x58, r19
    1182:	69 a1       	lds	r22, 0x49
    1184:	7a a1       	lds	r23, 0x4a
    1186:	8b a1       	lds	r24, 0x4b
    1188:	9c a1       	lds	r25, 0x4c
    118a:	a5 01       	movw	r20, r10
    118c:	94 01       	movw	r18, r8
    118e:	0e 94 d2 17 	call	0x2fa4	; 0x2fa4 <__udivmodsi4>
    1192:	29 8f       	std	Y+25, r18	; 0x19
    1194:	3a 8f       	std	Y+26, r19	; 0x1a
    1196:	4b 8f       	std	Y+27, r20	; 0x1b
    1198:	5c 8f       	std	Y+28, r21	; 0x1c
    119a:	6b 01       	movw	r12, r22
    119c:	7c 01       	movw	r14, r24
    119e:	69 a1       	lds	r22, 0x49
    11a0:	7a a1       	lds	r23, 0x4a
    11a2:	8b a1       	lds	r24, 0x4b
    11a4:	9c a1       	lds	r25, 0x4c
    11a6:	a5 01       	movw	r20, r10
    11a8:	94 01       	movw	r18, r8
    11aa:	0e 94 d2 17 	call	0x2fa4	; 0x2fa4 <__udivmodsi4>
    11ae:	ca 01       	movw	r24, r20
    11b0:	b9 01       	movw	r22, r18
    11b2:	2d a5       	lds	r18, 0x6d
    11b4:	3e a5       	lds	r19, 0x6e
    11b6:	4f a5       	lds	r20, 0x6f
    11b8:	58 a9       	sts	0x48, r21
    11ba:	0e 94 b3 17 	call	0x2f66	; 0x2f66 <__mulsi3>
    11be:	dc 01       	movw	r26, r24
    11c0:	cb 01       	movw	r24, r22
    11c2:	76 01       	movw	r14, r12
    11c4:	dd 24       	eor	r13, r13
    11c6:	cc 24       	eor	r12, r12
    11c8:	0d 8d       	ldd	r16, Y+29	; 0x1d
    11ca:	1e 8d       	ldd	r17, Y+30	; 0x1e
    11cc:	2f 8d       	ldd	r18, Y+31	; 0x1f
    11ce:	38 a1       	lds	r19, 0x48
    11d0:	a9 01       	movw	r20, r18
    11d2:	66 27       	eor	r22, r22
    11d4:	77 27       	eor	r23, r23
    11d6:	c4 2a       	or	r12, r20
    11d8:	d5 2a       	or	r13, r21
    11da:	e6 2a       	or	r14, r22
    11dc:	f7 2a       	or	r15, r23
    11de:	09 8d       	ldd	r16, Y+25	; 0x19
    11e0:	1a 8d       	ldd	r17, Y+26	; 0x1a
    11e2:	2b 8d       	ldd	r18, Y+27	; 0x1b
    11e4:	3c 8d       	ldd	r19, Y+28	; 0x1c
    11e6:	c8 16       	cp	r12, r24
    11e8:	d9 06       	cpc	r13, r25
    11ea:	ea 06       	cpc	r14, r26
    11ec:	fb 06       	cpc	r15, r27
    11ee:	38 f5       	brcc	.+78     	; 0x123e <__stack+0x9df>
    11f0:	01 50       	subi	r16, 0x01	; 1
    11f2:	10 40       	sbci	r17, 0x00	; 0
    11f4:	20 40       	sbci	r18, 0x00	; 0
    11f6:	30 40       	sbci	r19, 0x00	; 0
    11f8:	09 a3       	lds	r16, 0x59
    11fa:	1a a3       	lds	r17, 0x5a
    11fc:	2b a3       	lds	r18, 0x5b
    11fe:	3c a3       	lds	r19, 0x5c
    1200:	c4 0c       	add	r12, r4
    1202:	d5 1c       	adc	r13, r5
    1204:	e6 1c       	adc	r14, r6
    1206:	f7 1c       	adc	r15, r7
    1208:	c4 14       	cp	r12, r4
    120a:	d5 04       	cpc	r13, r5
    120c:	e6 04       	cpc	r14, r6
    120e:	f7 04       	cpc	r15, r7
    1210:	d0 f0       	brcs	.+52     	; 0x1246 <__stack+0x9e7>
    1212:	c8 16       	cp	r12, r24
    1214:	d9 06       	cpc	r13, r25
    1216:	ea 06       	cpc	r14, r26
    1218:	fb 06       	cpc	r15, r27
    121a:	a8 f4       	brcc	.+42     	; 0x1246 <__stack+0x9e7>
    121c:	09 8d       	ldd	r16, Y+25	; 0x19
    121e:	1a 8d       	ldd	r17, Y+26	; 0x1a
    1220:	2b 8d       	ldd	r18, Y+27	; 0x1b
    1222:	3c 8d       	ldd	r19, Y+28	; 0x1c
    1224:	02 50       	subi	r16, 0x02	; 2
    1226:	10 40       	sbci	r17, 0x00	; 0
    1228:	20 40       	sbci	r18, 0x00	; 0
    122a:	30 40       	sbci	r19, 0x00	; 0
    122c:	09 a3       	lds	r16, 0x59
    122e:	1a a3       	lds	r17, 0x5a
    1230:	2b a3       	lds	r18, 0x5b
    1232:	3c a3       	lds	r19, 0x5c
    1234:	c4 0c       	add	r12, r4
    1236:	d5 1c       	adc	r13, r5
    1238:	e6 1c       	adc	r14, r6
    123a:	f7 1c       	adc	r15, r7
    123c:	04 c0       	rjmp	.+8      	; 0x1246 <__stack+0x9e7>
    123e:	09 a3       	lds	r16, 0x59
    1240:	1a a3       	lds	r17, 0x5a
    1242:	2b a3       	lds	r18, 0x5b
    1244:	3c a3       	lds	r19, 0x5c
    1246:	c8 1a       	sub	r12, r24
    1248:	d9 0a       	sbc	r13, r25
    124a:	ea 0a       	sbc	r14, r26
    124c:	fb 0a       	sbc	r15, r27
    124e:	c7 01       	movw	r24, r14
    1250:	b6 01       	movw	r22, r12
    1252:	a5 01       	movw	r20, r10
    1254:	94 01       	movw	r18, r8
    1256:	0e 94 d2 17 	call	0x2fa4	; 0x2fa4 <__udivmodsi4>
    125a:	29 8f       	std	Y+25, r18	; 0x19
    125c:	3a 8f       	std	Y+26, r19	; 0x1a
    125e:	4b 8f       	std	Y+27, r20	; 0x1b
    1260:	5c 8f       	std	Y+28, r21	; 0x1c
    1262:	69 ab       	sts	0x59, r22
    1264:	7a ab       	sts	0x5a, r23
    1266:	8b ab       	sts	0x5b, r24
    1268:	9c ab       	sts	0x5c, r25
    126a:	c7 01       	movw	r24, r14
    126c:	b6 01       	movw	r22, r12
    126e:	a5 01       	movw	r20, r10
    1270:	94 01       	movw	r18, r8
    1272:	0e 94 d2 17 	call	0x2fa4	; 0x2fa4 <__udivmodsi4>
    1276:	ca 01       	movw	r24, r20
    1278:	b9 01       	movw	r22, r18
    127a:	2d a5       	lds	r18, 0x6d
    127c:	3e a5       	lds	r19, 0x6e
    127e:	4f a5       	lds	r20, 0x6f
    1280:	58 a9       	sts	0x48, r21
    1282:	0e 94 b3 17 	call	0x2f66	; 0x2f66 <__mulsi3>
    1286:	4b 01       	movw	r8, r22
    1288:	5c 01       	movw	r10, r24
    128a:	49 a9       	sts	0x49, r20
    128c:	5a a9       	sts	0x4a, r21
    128e:	6b a9       	sts	0x4b, r22
    1290:	7c a9       	sts	0x4c, r23
    1292:	9a 01       	movw	r18, r20
    1294:	11 27       	eor	r17, r17
    1296:	00 27       	eor	r16, r16
    1298:	8d 8d       	ldd	r24, Y+29	; 0x1d
    129a:	9e 8d       	ldd	r25, Y+30	; 0x1e
    129c:	af 8d       	ldd	r26, Y+31	; 0x1f
    129e:	b8 a1       	lds	r27, 0x48
    12a0:	a0 70       	andi	r26, 0x00	; 0
    12a2:	b0 70       	andi	r27, 0x00	; 0
    12a4:	08 2b       	or	r16, r24
    12a6:	19 2b       	or	r17, r25
    12a8:	2a 2b       	or	r18, r26
    12aa:	3b 2b       	or	r19, r27
    12ac:	89 8d       	ldd	r24, Y+25	; 0x19
    12ae:	9a 8d       	ldd	r25, Y+26	; 0x1a
    12b0:	ab 8d       	ldd	r26, Y+27	; 0x1b
    12b2:	bc 8d       	ldd	r27, Y+28	; 0x1c
    12b4:	08 15       	cp	r16, r8
    12b6:	19 05       	cpc	r17, r9
    12b8:	2a 05       	cpc	r18, r10
    12ba:	3b 05       	cpc	r19, r11
    12bc:	e0 f4       	brcc	.+56     	; 0x12f6 <__stack+0xa97>
    12be:	01 97       	sbiw	r24, 0x01	; 1
    12c0:	a1 09       	sbc	r26, r1
    12c2:	b1 09       	sbc	r27, r1
    12c4:	04 0d       	add	r16, r4
    12c6:	15 1d       	adc	r17, r5
    12c8:	26 1d       	adc	r18, r6
    12ca:	37 1d       	adc	r19, r7
    12cc:	04 15       	cp	r16, r4
    12ce:	15 05       	cpc	r17, r5
    12d0:	26 05       	cpc	r18, r6
    12d2:	37 05       	cpc	r19, r7
    12d4:	80 f0       	brcs	.+32     	; 0x12f6 <__stack+0xa97>
    12d6:	08 15       	cp	r16, r8
    12d8:	19 05       	cpc	r17, r9
    12da:	2a 05       	cpc	r18, r10
    12dc:	3b 05       	cpc	r19, r11
    12de:	58 f4       	brcc	.+22     	; 0x12f6 <__stack+0xa97>
    12e0:	89 8d       	ldd	r24, Y+25	; 0x19
    12e2:	9a 8d       	ldd	r25, Y+26	; 0x1a
    12e4:	ab 8d       	ldd	r26, Y+27	; 0x1b
    12e6:	bc 8d       	ldd	r27, Y+28	; 0x1c
    12e8:	02 97       	sbiw	r24, 0x02	; 2
    12ea:	a1 09       	sbc	r26, r1
    12ec:	b1 09       	sbc	r27, r1
    12ee:	04 0d       	add	r16, r4
    12f0:	15 1d       	adc	r17, r5
    12f2:	26 1d       	adc	r18, r6
    12f4:	37 1d       	adc	r19, r7
    12f6:	b9 01       	movw	r22, r18
    12f8:	a8 01       	movw	r20, r16
    12fa:	48 19       	sub	r20, r8
    12fc:	59 09       	sbc	r21, r9
    12fe:	6a 09       	sbc	r22, r10
    1300:	7b 09       	sbc	r23, r11
    1302:	4d 8f       	std	Y+29, r20	; 0x1d
    1304:	5e 8f       	std	Y+30, r21	; 0x1e
    1306:	6f 8f       	std	Y+31, r22	; 0x1f
    1308:	78 a3       	lds	r23, 0x58
    130a:	09 a1       	lds	r16, 0x49
    130c:	1a a1       	lds	r17, 0x4a
    130e:	2b a1       	lds	r18, 0x4b
    1310:	3c a1       	lds	r19, 0x4c
    1312:	78 01       	movw	r14, r16
    1314:	dd 24       	eor	r13, r13
    1316:	cc 24       	eor	r12, r12
    1318:	c8 2a       	or	r12, r24
    131a:	d9 2a       	or	r13, r25
    131c:	ea 2a       	or	r14, r26
    131e:	fb 2a       	or	r15, r27
    1320:	ff ef       	ldi	r31, 0xFF	; 255
    1322:	8f 2e       	mov	r8, r31
    1324:	ff ef       	ldi	r31, 0xFF	; 255
    1326:	9f 2e       	mov	r9, r31
    1328:	a1 2c       	mov	r10, r1
    132a:	b1 2c       	mov	r11, r1
    132c:	8c 20       	and	r8, r12
    132e:	9d 20       	and	r9, r13
    1330:	ae 20       	and	r10, r14
    1332:	bf 20       	and	r11, r15
    1334:	87 01       	movw	r16, r14
    1336:	22 27       	eor	r18, r18
    1338:	33 27       	eor	r19, r19
    133a:	09 8f       	std	Y+25, r16	; 0x19
    133c:	1a 8f       	std	Y+26, r17	; 0x1a
    133e:	2b 8f       	std	Y+27, r18	; 0x1b
    1340:	3c 8f       	std	Y+28, r19	; 0x1c
    1342:	49 a4       	lds	r20, 0xa9
    1344:	5a a4       	lds	r21, 0xaa
    1346:	6b a4       	lds	r22, 0xab
    1348:	7c a4       	lds	r23, 0xac
    134a:	2f ef       	ldi	r18, 0xFF	; 255
    134c:	3f ef       	ldi	r19, 0xFF	; 255
    134e:	40 e0       	ldi	r20, 0x00	; 0
    1350:	50 e0       	ldi	r21, 0x00	; 0
    1352:	42 22       	and	r4, r18
    1354:	53 22       	and	r5, r19
    1356:	64 22       	and	r6, r20
    1358:	75 22       	and	r7, r21
    135a:	29 a5       	lds	r18, 0x69
    135c:	3a a5       	lds	r19, 0x6a
    135e:	4b a5       	lds	r20, 0x6b
    1360:	5c a5       	lds	r21, 0x6c
    1362:	8a 01       	movw	r16, r20
    1364:	22 27       	eor	r18, r18
    1366:	33 27       	eor	r19, r19
    1368:	09 a3       	lds	r16, 0x59
    136a:	1a a3       	lds	r17, 0x5a
    136c:	2b a3       	lds	r18, 0x5b
    136e:	3c a3       	lds	r19, 0x5c
    1370:	c5 01       	movw	r24, r10
    1372:	b4 01       	movw	r22, r8
    1374:	a3 01       	movw	r20, r6
    1376:	92 01       	movw	r18, r4
    1378:	0e 94 b3 17 	call	0x2f66	; 0x2f66 <__mulsi3>
    137c:	69 a7       	lds	r22, 0x79
    137e:	7a a7       	lds	r23, 0x7a
    1380:	8b a7       	lds	r24, 0x7b
    1382:	9c a7       	lds	r25, 0x7c
    1384:	c5 01       	movw	r24, r10
    1386:	b4 01       	movw	r22, r8
    1388:	29 a1       	lds	r18, 0x49
    138a:	3a a1       	lds	r19, 0x4a
    138c:	4b a1       	lds	r20, 0x4b
    138e:	5c a1       	lds	r21, 0x4c
    1390:	0e 94 b3 17 	call	0x2f66	; 0x2f66 <__mulsi3>
    1394:	4b 01       	movw	r8, r22
    1396:	5c 01       	movw	r10, r24
    1398:	69 8d       	ldd	r22, Y+25	; 0x19
    139a:	7a 8d       	ldd	r23, Y+26	; 0x1a
    139c:	8b 8d       	ldd	r24, Y+27	; 0x1b
    139e:	9c 8d       	ldd	r25, Y+28	; 0x1c
    13a0:	a3 01       	movw	r20, r6
    13a2:	92 01       	movw	r18, r4
    13a4:	0e 94 b3 17 	call	0x2f66	; 0x2f66 <__mulsi3>
    13a8:	2b 01       	movw	r4, r22
    13aa:	3c 01       	movw	r6, r24
    13ac:	69 8d       	ldd	r22, Y+25	; 0x19
    13ae:	7a 8d       	ldd	r23, Y+26	; 0x1a
    13b0:	8b 8d       	ldd	r24, Y+27	; 0x1b
    13b2:	9c 8d       	ldd	r25, Y+28	; 0x1c
    13b4:	29 a1       	lds	r18, 0x49
    13b6:	3a a1       	lds	r19, 0x4a
    13b8:	4b a1       	lds	r20, 0x4b
    13ba:	5c a1       	lds	r21, 0x4c
    13bc:	0e 94 b3 17 	call	0x2f66	; 0x2f66 <__mulsi3>
    13c0:	ab 01       	movw	r20, r22
    13c2:	bc 01       	movw	r22, r24
    13c4:	84 0c       	add	r8, r4
    13c6:	95 1c       	adc	r9, r5
    13c8:	a6 1c       	adc	r10, r6
    13ca:	b7 1c       	adc	r11, r7
    13cc:	09 a5       	lds	r16, 0x69
    13ce:	1a a5       	lds	r17, 0x6a
    13d0:	2b a5       	lds	r18, 0x6b
    13d2:	3c a5       	lds	r19, 0x6c
    13d4:	c9 01       	movw	r24, r18
    13d6:	aa 27       	eor	r26, r26
    13d8:	bb 27       	eor	r27, r27
    13da:	88 0e       	add	r8, r24
    13dc:	99 1e       	adc	r9, r25
    13de:	aa 1e       	adc	r10, r26
    13e0:	bb 1e       	adc	r11, r27
    13e2:	84 14       	cp	r8, r4
    13e4:	95 04       	cpc	r9, r5
    13e6:	a6 04       	cpc	r10, r6
    13e8:	b7 04       	cpc	r11, r7
    13ea:	20 f4       	brcc	.+8      	; 0x13f4 <__stack+0xb95>
    13ec:	40 50       	subi	r20, 0x00	; 0
    13ee:	50 40       	sbci	r21, 0x00	; 0
    13f0:	6f 4f       	sbci	r22, 0xFF	; 255
    13f2:	7f 4f       	sbci	r23, 0xFF	; 255
    13f4:	c5 01       	movw	r24, r10
    13f6:	aa 27       	eor	r26, r26
    13f8:	bb 27       	eor	r27, r27
    13fa:	84 0f       	add	r24, r20
    13fc:	95 1f       	adc	r25, r21
    13fe:	a6 1f       	adc	r26, r22
    1400:	b7 1f       	adc	r27, r23
    1402:	0d 8d       	ldd	r16, Y+29	; 0x1d
    1404:	1e 8d       	ldd	r17, Y+30	; 0x1e
    1406:	2f 8d       	ldd	r18, Y+31	; 0x1f
    1408:	38 a1       	lds	r19, 0x48
    140a:	08 17       	cp	r16, r24
    140c:	19 07       	cpc	r17, r25
    140e:	2a 07       	cpc	r18, r26
    1410:	3b 07       	cpc	r19, r27
    1412:	18 f1       	brcs	.+70     	; 0x145a <__stack+0xbfb>
    1414:	80 17       	cp	r24, r16
    1416:	91 07       	cpc	r25, r17
    1418:	a2 07       	cpc	r26, r18
    141a:	b3 07       	cpc	r27, r19
    141c:	a1 f5       	brne	.+104    	; 0x1486 <__stack+0xc27>
    141e:	54 01       	movw	r10, r8
    1420:	99 24       	eor	r9, r9
    1422:	88 24       	eor	r8, r8
    1424:	89 a5       	lds	r24, 0x69
    1426:	9a a5       	lds	r25, 0x6a
    1428:	ab a5       	lds	r26, 0x6b
    142a:	bc a5       	lds	r27, 0x6c
    142c:	a0 70       	andi	r26, 0x00	; 0
    142e:	b0 70       	andi	r27, 0x00	; 0
    1430:	88 0e       	add	r8, r24
    1432:	99 1e       	adc	r9, r25
    1434:	aa 1e       	adc	r10, r26
    1436:	bb 1e       	adc	r11, r27
    1438:	4d a1       	lds	r20, 0x4d
    143a:	5e a1       	lds	r21, 0x4e
    143c:	6f a1       	lds	r22, 0x4f
    143e:	78 a5       	lds	r23, 0x68
    1440:	03 2c       	mov	r0, r3
    1442:	04 c0       	rjmp	.+8      	; 0x144c <__stack+0xbed>
    1444:	44 0f       	add	r20, r20
    1446:	55 1f       	adc	r21, r21
    1448:	66 1f       	adc	r22, r22
    144a:	77 1f       	adc	r23, r23
    144c:	0a 94       	dec	r0
    144e:	d2 f7       	brpl	.-12     	; 0x1444 <__stack+0xbe5>
    1450:	48 15       	cp	r20, r8
    1452:	59 05       	cpc	r21, r9
    1454:	6a 05       	cpc	r22, r10
    1456:	7b 05       	cpc	r23, r11
    1458:	b0 f4       	brcc	.+44     	; 0x1486 <__stack+0xc27>
    145a:	08 94       	sec
    145c:	c1 08       	sbc	r12, r1
    145e:	d1 08       	sbc	r13, r1
    1460:	e1 08       	sbc	r14, r1
    1462:	f1 08       	sbc	r15, r1
    1464:	10 c0       	rjmp	.+32     	; 0x1486 <__stack+0xc27>
    1466:	44 24       	eor	r4, r4
    1468:	55 24       	eor	r5, r5
    146a:	32 01       	movw	r6, r4
    146c:	cc 24       	eor	r12, r12
    146e:	dd 24       	eor	r13, r13
    1470:	76 01       	movw	r14, r12
    1472:	0c c0       	rjmp	.+24     	; 0x148c <__stack+0xc2d>
    1474:	44 24       	eor	r4, r4
    1476:	55 24       	eor	r5, r5
    1478:	32 01       	movw	r6, r4
    147a:	81 e0       	ldi	r24, 0x01	; 1
    147c:	c8 2e       	mov	r12, r24
    147e:	d1 2c       	mov	r13, r1
    1480:	e1 2c       	mov	r14, r1
    1482:	f1 2c       	mov	r15, r1
    1484:	03 c0       	rjmp	.+6      	; 0x148c <__stack+0xc2d>
    1486:	44 24       	eor	r4, r4
    1488:	55 24       	eor	r5, r5
    148a:	32 01       	movw	r6, r4
    148c:	fe 01       	movw	r30, r28
    148e:	31 96       	adiw	r30, 0x01	; 1
    1490:	88 e0       	ldi	r24, 0x08	; 8
    1492:	df 01       	movw	r26, r30
    1494:	1d 92       	st	X+, r1
    1496:	8a 95       	dec	r24
    1498:	e9 f7       	brne	.-6      	; 0x1494 <__stack+0xc35>
    149a:	c9 82       	std	Y+1, r12	; 0x01
    149c:	da 82       	std	Y+2, r13	; 0x02
    149e:	eb 82       	std	Y+3, r14	; 0x03
    14a0:	fc 82       	std	Y+4, r15	; 0x04
    14a2:	4d 82       	std	Y+5, r4	; 0x05
    14a4:	5e 82       	std	Y+6, r5	; 0x06
    14a6:	6f 82       	std	Y+7, r6	; 0x07
    14a8:	78 86       	std	Y+8, r7	; 0x08
    14aa:	2c 2d       	mov	r18, r12
    14ac:	3a 81       	ldd	r19, Y+2	; 0x02
    14ae:	4b 81       	ldd	r20, Y+3	; 0x03
    14b0:	5c 81       	ldd	r21, Y+4	; 0x04
    14b2:	64 2d       	mov	r22, r4
    14b4:	7e 81       	ldd	r23, Y+6	; 0x06
    14b6:	8f 81       	ldd	r24, Y+7	; 0x07
    14b8:	98 85       	ldd	r25, Y+8	; 0x08
    14ba:	e4 96       	adiw	r28, 0x34	; 52
    14bc:	e1 e1       	ldi	r30, 0x11	; 17
    14be:	0c 94 11 18 	jmp	0x3022	; 0x3022 <__epilogue_restores__+0x2>

000014c2 <__umoddi3>:
    14c2:	a4 e3       	ldi	r26, 0x34	; 52
    14c4:	b0 e0       	ldi	r27, 0x00	; 0
    14c6:	e7 e6       	ldi	r30, 0x67	; 103
    14c8:	fa e0       	ldi	r31, 0x0A	; 10
    14ca:	0c 94 f4 17 	jmp	0x2fe8	; 0x2fe8 <__prologue_saves__>
    14ce:	f8 2f       	mov	r31, r24
    14d0:	e9 2f       	mov	r30, r25
    14d2:	a9 86       	std	Y+9, r10	; 0x09
    14d4:	ba 86       	std	Y+10, r11	; 0x0a
    14d6:	cb 86       	std	Y+11, r12	; 0x0b
    14d8:	dc 86       	std	Y+12, r13	; 0x0c
    14da:	ed 86       	std	Y+13, r14	; 0x0d
    14dc:	fe 86       	std	Y+14, r15	; 0x0e
    14de:	0f 87       	std	Y+15, r16	; 0x0f
    14e0:	18 8b       	std	Y+16, r17	; 0x10
    14e2:	89 84       	ldd	r8, Y+9	; 0x09
    14e4:	9a 84       	ldd	r9, Y+10	; 0x0a
    14e6:	ab 84       	ldd	r10, Y+11	; 0x0b
    14e8:	bc 84       	ldd	r11, Y+12	; 0x0c
    14ea:	8d 85       	ldd	r24, Y+13	; 0x0d
    14ec:	9e 85       	ldd	r25, Y+14	; 0x0e
    14ee:	af 85       	ldd	r26, Y+15	; 0x0f
    14f0:	b8 89       	ldd	r27, Y+16	; 0x10
    14f2:	29 8f       	std	Y+25, r18	; 0x19
    14f4:	3a 8f       	std	Y+26, r19	; 0x1a
    14f6:	4b 8f       	std	Y+27, r20	; 0x1b
    14f8:	5c 8f       	std	Y+28, r21	; 0x1c
    14fa:	6b 01       	movw	r12, r22
    14fc:	ef 2e       	mov	r14, r31
    14fe:	fe 2e       	mov	r15, r30
    1500:	00 97       	sbiw	r24, 0x00	; 0
    1502:	a1 05       	cpc	r26, r1
    1504:	b1 05       	cpc	r27, r1
    1506:	09 f0       	breq	.+2      	; 0x150a <__umoddi3+0x48>
    1508:	a2 c2       	rjmp	.+1348   	; 0x1a4e <__umoddi3+0x58c>
    150a:	c8 14       	cp	r12, r8
    150c:	d9 04       	cpc	r13, r9
    150e:	ea 04       	cpc	r14, r10
    1510:	fb 04       	cpc	r15, r11
    1512:	08 f0       	brcs	.+2      	; 0x1516 <__umoddi3+0x54>
    1514:	87 c0       	rjmp	.+270    	; 0x1624 <__umoddi3+0x162>
    1516:	00 e0       	ldi	r16, 0x00	; 0
    1518:	80 16       	cp	r8, r16
    151a:	00 e0       	ldi	r16, 0x00	; 0
    151c:	90 06       	cpc	r9, r16
    151e:	01 e0       	ldi	r16, 0x01	; 1
    1520:	a0 06       	cpc	r10, r16
    1522:	00 e0       	ldi	r16, 0x00	; 0
    1524:	b0 06       	cpc	r11, r16
    1526:	58 f4       	brcc	.+22     	; 0x153e <__umoddi3+0x7c>
    1528:	1f ef       	ldi	r17, 0xFF	; 255
    152a:	81 16       	cp	r8, r17
    152c:	91 04       	cpc	r9, r1
    152e:	a1 04       	cpc	r10, r1
    1530:	b1 04       	cpc	r11, r1
    1532:	09 f0       	breq	.+2      	; 0x1536 <__umoddi3+0x74>
    1534:	90 f4       	brcc	.+36     	; 0x155a <__umoddi3+0x98>
    1536:	80 e0       	ldi	r24, 0x00	; 0
    1538:	90 e0       	ldi	r25, 0x00	; 0
    153a:	dc 01       	movw	r26, r24
    153c:	17 c0       	rjmp	.+46     	; 0x156c <__umoddi3+0xaa>
    153e:	20 e0       	ldi	r18, 0x00	; 0
    1540:	82 16       	cp	r8, r18
    1542:	20 e0       	ldi	r18, 0x00	; 0
    1544:	92 06       	cpc	r9, r18
    1546:	20 e0       	ldi	r18, 0x00	; 0
    1548:	a2 06       	cpc	r10, r18
    154a:	21 e0       	ldi	r18, 0x01	; 1
    154c:	b2 06       	cpc	r11, r18
    154e:	50 f4       	brcc	.+20     	; 0x1564 <__umoddi3+0xa2>
    1550:	80 e1       	ldi	r24, 0x10	; 16
    1552:	90 e0       	ldi	r25, 0x00	; 0
    1554:	a0 e0       	ldi	r26, 0x00	; 0
    1556:	b0 e0       	ldi	r27, 0x00	; 0
    1558:	09 c0       	rjmp	.+18     	; 0x156c <__umoddi3+0xaa>
    155a:	88 e0       	ldi	r24, 0x08	; 8
    155c:	90 e0       	ldi	r25, 0x00	; 0
    155e:	a0 e0       	ldi	r26, 0x00	; 0
    1560:	b0 e0       	ldi	r27, 0x00	; 0
    1562:	04 c0       	rjmp	.+8      	; 0x156c <__umoddi3+0xaa>
    1564:	88 e1       	ldi	r24, 0x18	; 24
    1566:	90 e0       	ldi	r25, 0x00	; 0
    1568:	a0 e0       	ldi	r26, 0x00	; 0
    156a:	b0 e0       	ldi	r27, 0x00	; 0
    156c:	b5 01       	movw	r22, r10
    156e:	a4 01       	movw	r20, r8
    1570:	08 2e       	mov	r0, r24
    1572:	04 c0       	rjmp	.+8      	; 0x157c <__umoddi3+0xba>
    1574:	76 95       	lsr	r23
    1576:	67 95       	ror	r22
    1578:	57 95       	ror	r21
    157a:	47 95       	ror	r20
    157c:	0a 94       	dec	r0
    157e:	d2 f7       	brpl	.-12     	; 0x1574 <__umoddi3+0xb2>
    1580:	fa 01       	movw	r30, r20
    1582:	e2 58       	subi	r30, 0x82	; 130
    1584:	ff 4f       	sbci	r31, 0xFF	; 255
    1586:	20 81       	ld	r18, Z
    1588:	40 e2       	ldi	r20, 0x20	; 32
    158a:	50 e0       	ldi	r21, 0x00	; 0
    158c:	60 e0       	ldi	r22, 0x00	; 0
    158e:	70 e0       	ldi	r23, 0x00	; 0
    1590:	48 1b       	sub	r20, r24
    1592:	59 0b       	sbc	r21, r25
    1594:	6a 0b       	sbc	r22, r26
    1596:	7b 0b       	sbc	r23, r27
    1598:	42 1b       	sub	r20, r18
    159a:	51 09       	sbc	r21, r1
    159c:	61 09       	sbc	r22, r1
    159e:	71 09       	sbc	r23, r1
    15a0:	4d 8f       	std	Y+29, r20	; 0x1d
    15a2:	5e 8f       	std	Y+30, r21	; 0x1e
    15a4:	6f 8f       	std	Y+31, r22	; 0x1f
    15a6:	78 a3       	lds	r23, 0x58
    15a8:	41 15       	cp	r20, r1
    15aa:	51 05       	cpc	r21, r1
    15ac:	61 05       	cpc	r22, r1
    15ae:	71 05       	cpc	r23, r1
    15b0:	09 f4       	brne	.+2      	; 0x15b4 <__umoddi3+0xf2>
    15b2:	85 c1       	rjmp	.+778    	; 0x18be <__umoddi3+0x3fc>
    15b4:	2d 8d       	ldd	r18, Y+29	; 0x1d
    15b6:	02 2e       	mov	r0, r18
    15b8:	04 c0       	rjmp	.+8      	; 0x15c2 <__umoddi3+0x100>
    15ba:	88 0c       	add	r8, r8
    15bc:	99 1c       	adc	r9, r9
    15be:	aa 1c       	adc	r10, r10
    15c0:	bb 1c       	adc	r11, r11
    15c2:	0a 94       	dec	r0
    15c4:	d2 f7       	brpl	.-12     	; 0x15ba <__umoddi3+0xf8>
    15c6:	b7 01       	movw	r22, r14
    15c8:	a6 01       	movw	r20, r12
    15ca:	02 2e       	mov	r0, r18
    15cc:	04 c0       	rjmp	.+8      	; 0x15d6 <__umoddi3+0x114>
    15ce:	44 0f       	add	r20, r20
    15d0:	55 1f       	adc	r21, r21
    15d2:	66 1f       	adc	r22, r22
    15d4:	77 1f       	adc	r23, r23
    15d6:	0a 94       	dec	r0
    15d8:	d2 f7       	brpl	.-12     	; 0x15ce <__umoddi3+0x10c>
    15da:	80 e2       	ldi	r24, 0x20	; 32
    15dc:	90 e0       	ldi	r25, 0x00	; 0
    15de:	ad 8d       	ldd	r26, Y+29	; 0x1d
    15e0:	be 8d       	ldd	r27, Y+30	; 0x1e
    15e2:	8a 1b       	sub	r24, r26
    15e4:	9b 0b       	sbc	r25, r27
    15e6:	c9 8c       	ldd	r12, Y+25	; 0x19
    15e8:	da 8c       	ldd	r13, Y+26	; 0x1a
    15ea:	eb 8c       	ldd	r14, Y+27	; 0x1b
    15ec:	fc 8c       	ldd	r15, Y+28	; 0x1c
    15ee:	04 c0       	rjmp	.+8      	; 0x15f8 <__umoddi3+0x136>
    15f0:	f6 94       	lsr	r15
    15f2:	e7 94       	ror	r14
    15f4:	d7 94       	ror	r13
    15f6:	c7 94       	ror	r12
    15f8:	8a 95       	dec	r24
    15fa:	d2 f7       	brpl	.-12     	; 0x15f0 <__umoddi3+0x12e>
    15fc:	c4 2a       	or	r12, r20
    15fe:	d5 2a       	or	r13, r21
    1600:	e6 2a       	or	r14, r22
    1602:	f7 2a       	or	r15, r23
    1604:	49 8d       	ldd	r20, Y+25	; 0x19
    1606:	5a 8d       	ldd	r21, Y+26	; 0x1a
    1608:	6b 8d       	ldd	r22, Y+27	; 0x1b
    160a:	7c 8d       	ldd	r23, Y+28	; 0x1c
    160c:	04 c0       	rjmp	.+8      	; 0x1616 <__umoddi3+0x154>
    160e:	44 0f       	add	r20, r20
    1610:	55 1f       	adc	r21, r21
    1612:	66 1f       	adc	r22, r22
    1614:	77 1f       	adc	r23, r23
    1616:	2a 95       	dec	r18
    1618:	d2 f7       	brpl	.-12     	; 0x160e <__umoddi3+0x14c>
    161a:	49 8f       	std	Y+25, r20	; 0x19
    161c:	5a 8f       	std	Y+26, r21	; 0x1a
    161e:	6b 8f       	std	Y+27, r22	; 0x1b
    1620:	7c 8f       	std	Y+28, r23	; 0x1c
    1622:	4d c1       	rjmp	.+666    	; 0x18be <__umoddi3+0x3fc>
    1624:	81 14       	cp	r8, r1
    1626:	91 04       	cpc	r9, r1
    1628:	a1 04       	cpc	r10, r1
    162a:	b1 04       	cpc	r11, r1
    162c:	51 f4       	brne	.+20     	; 0x1642 <__umoddi3+0x180>
    162e:	61 e0       	ldi	r22, 0x01	; 1
    1630:	70 e0       	ldi	r23, 0x00	; 0
    1632:	80 e0       	ldi	r24, 0x00	; 0
    1634:	90 e0       	ldi	r25, 0x00	; 0
    1636:	a5 01       	movw	r20, r10
    1638:	94 01       	movw	r18, r8
    163a:	0e 94 d2 17 	call	0x2fa4	; 0x2fa4 <__udivmodsi4>
    163e:	49 01       	movw	r8, r18
    1640:	5a 01       	movw	r10, r20
    1642:	00 e0       	ldi	r16, 0x00	; 0
    1644:	80 16       	cp	r8, r16
    1646:	00 e0       	ldi	r16, 0x00	; 0
    1648:	90 06       	cpc	r9, r16
    164a:	01 e0       	ldi	r16, 0x01	; 1
    164c:	a0 06       	cpc	r10, r16
    164e:	00 e0       	ldi	r16, 0x00	; 0
    1650:	b0 06       	cpc	r11, r16
    1652:	58 f4       	brcc	.+22     	; 0x166a <__umoddi3+0x1a8>
    1654:	1f ef       	ldi	r17, 0xFF	; 255
    1656:	81 16       	cp	r8, r17
    1658:	91 04       	cpc	r9, r1
    165a:	a1 04       	cpc	r10, r1
    165c:	b1 04       	cpc	r11, r1
    165e:	09 f0       	breq	.+2      	; 0x1662 <__umoddi3+0x1a0>
    1660:	90 f4       	brcc	.+36     	; 0x1686 <__umoddi3+0x1c4>
    1662:	80 e0       	ldi	r24, 0x00	; 0
    1664:	90 e0       	ldi	r25, 0x00	; 0
    1666:	dc 01       	movw	r26, r24
    1668:	17 c0       	rjmp	.+46     	; 0x1698 <__umoddi3+0x1d6>
    166a:	20 e0       	ldi	r18, 0x00	; 0
    166c:	82 16       	cp	r8, r18
    166e:	20 e0       	ldi	r18, 0x00	; 0
    1670:	92 06       	cpc	r9, r18
    1672:	20 e0       	ldi	r18, 0x00	; 0
    1674:	a2 06       	cpc	r10, r18
    1676:	21 e0       	ldi	r18, 0x01	; 1
    1678:	b2 06       	cpc	r11, r18
    167a:	50 f4       	brcc	.+20     	; 0x1690 <__umoddi3+0x1ce>
    167c:	80 e1       	ldi	r24, 0x10	; 16
    167e:	90 e0       	ldi	r25, 0x00	; 0
    1680:	a0 e0       	ldi	r26, 0x00	; 0
    1682:	b0 e0       	ldi	r27, 0x00	; 0
    1684:	09 c0       	rjmp	.+18     	; 0x1698 <__umoddi3+0x1d6>
    1686:	88 e0       	ldi	r24, 0x08	; 8
    1688:	90 e0       	ldi	r25, 0x00	; 0
    168a:	a0 e0       	ldi	r26, 0x00	; 0
    168c:	b0 e0       	ldi	r27, 0x00	; 0
    168e:	04 c0       	rjmp	.+8      	; 0x1698 <__umoddi3+0x1d6>
    1690:	88 e1       	ldi	r24, 0x18	; 24
    1692:	90 e0       	ldi	r25, 0x00	; 0
    1694:	a0 e0       	ldi	r26, 0x00	; 0
    1696:	b0 e0       	ldi	r27, 0x00	; 0
    1698:	b5 01       	movw	r22, r10
    169a:	a4 01       	movw	r20, r8
    169c:	08 2e       	mov	r0, r24
    169e:	04 c0       	rjmp	.+8      	; 0x16a8 <__umoddi3+0x1e6>
    16a0:	76 95       	lsr	r23
    16a2:	67 95       	ror	r22
    16a4:	57 95       	ror	r21
    16a6:	47 95       	ror	r20
    16a8:	0a 94       	dec	r0
    16aa:	d2 f7       	brpl	.-12     	; 0x16a0 <__umoddi3+0x1de>
    16ac:	fa 01       	movw	r30, r20
    16ae:	e2 58       	subi	r30, 0x82	; 130
    16b0:	ff 4f       	sbci	r31, 0xFF	; 255
    16b2:	20 81       	ld	r18, Z
    16b4:	82 0f       	add	r24, r18
    16b6:	91 1d       	adc	r25, r1
    16b8:	a1 1d       	adc	r26, r1
    16ba:	b1 1d       	adc	r27, r1
    16bc:	00 e2       	ldi	r16, 0x20	; 32
    16be:	10 e0       	ldi	r17, 0x00	; 0
    16c0:	20 e0       	ldi	r18, 0x00	; 0
    16c2:	30 e0       	ldi	r19, 0x00	; 0
    16c4:	08 1b       	sub	r16, r24
    16c6:	19 0b       	sbc	r17, r25
    16c8:	2a 0b       	sbc	r18, r26
    16ca:	3b 0b       	sbc	r19, r27
    16cc:	0d 8f       	std	Y+29, r16	; 0x1d
    16ce:	1e 8f       	std	Y+30, r17	; 0x1e
    16d0:	2f 8f       	std	Y+31, r18	; 0x1f
    16d2:	38 a3       	lds	r19, 0x58
    16d4:	01 15       	cp	r16, r1
    16d6:	11 05       	cpc	r17, r1
    16d8:	21 05       	cpc	r18, r1
    16da:	31 05       	cpc	r19, r1
    16dc:	29 f4       	brne	.+10     	; 0x16e8 <__umoddi3+0x226>
    16de:	c8 18       	sub	r12, r8
    16e0:	d9 08       	sbc	r13, r9
    16e2:	ea 08       	sbc	r14, r10
    16e4:	fb 08       	sbc	r15, r11
    16e6:	eb c0       	rjmp	.+470    	; 0x18be <__umoddi3+0x3fc>
    16e8:	2d 8d       	ldd	r18, Y+29	; 0x1d
    16ea:	02 2e       	mov	r0, r18
    16ec:	04 c0       	rjmp	.+8      	; 0x16f6 <__umoddi3+0x234>
    16ee:	88 0c       	add	r8, r8
    16f0:	99 1c       	adc	r9, r9
    16f2:	aa 1c       	adc	r10, r10
    16f4:	bb 1c       	adc	r11, r11
    16f6:	0a 94       	dec	r0
    16f8:	d2 f7       	brpl	.-12     	; 0x16ee <__umoddi3+0x22c>
    16fa:	b7 01       	movw	r22, r14
    16fc:	a6 01       	movw	r20, r12
    16fe:	08 2e       	mov	r0, r24
    1700:	04 c0       	rjmp	.+8      	; 0x170a <__umoddi3+0x248>
    1702:	76 95       	lsr	r23
    1704:	67 95       	ror	r22
    1706:	57 95       	ror	r21
    1708:	47 95       	ror	r20
    170a:	0a 94       	dec	r0
    170c:	d2 f7       	brpl	.-12     	; 0x1702 <__umoddi3+0x240>
    170e:	49 a7       	lds	r20, 0x79
    1710:	5a a7       	lds	r21, 0x7a
    1712:	6b a7       	lds	r22, 0x7b
    1714:	7c a7       	lds	r23, 0x7c
    1716:	b7 01       	movw	r22, r14
    1718:	a6 01       	movw	r20, r12
    171a:	02 2e       	mov	r0, r18
    171c:	04 c0       	rjmp	.+8      	; 0x1726 <__umoddi3+0x264>
    171e:	44 0f       	add	r20, r20
    1720:	55 1f       	adc	r21, r21
    1722:	66 1f       	adc	r22, r22
    1724:	77 1f       	adc	r23, r23
    1726:	0a 94       	dec	r0
    1728:	d2 f7       	brpl	.-12     	; 0x171e <__umoddi3+0x25c>
    172a:	c9 8c       	ldd	r12, Y+25	; 0x19
    172c:	da 8c       	ldd	r13, Y+26	; 0x1a
    172e:	eb 8c       	ldd	r14, Y+27	; 0x1b
    1730:	fc 8c       	ldd	r15, Y+28	; 0x1c
    1732:	04 c0       	rjmp	.+8      	; 0x173c <__umoddi3+0x27a>
    1734:	f6 94       	lsr	r15
    1736:	e7 94       	ror	r14
    1738:	d7 94       	ror	r13
    173a:	c7 94       	ror	r12
    173c:	8a 95       	dec	r24
    173e:	d2 f7       	brpl	.-12     	; 0x1734 <__umoddi3+0x272>
    1740:	4c 29       	or	r20, r12
    1742:	5d 29       	or	r21, r13
    1744:	6e 29       	or	r22, r14
    1746:	7f 29       	or	r23, r15
    1748:	49 a3       	lds	r20, 0x59
    174a:	5a a3       	lds	r21, 0x5a
    174c:	6b a3       	lds	r22, 0x5b
    174e:	7c a3       	lds	r23, 0x5c
    1750:	e9 8c       	ldd	r14, Y+25	; 0x19
    1752:	fa 8c       	ldd	r15, Y+26	; 0x1a
    1754:	0b 8d       	ldd	r16, Y+27	; 0x1b
    1756:	1c 8d       	ldd	r17, Y+28	; 0x1c
    1758:	04 c0       	rjmp	.+8      	; 0x1762 <__umoddi3+0x2a0>
    175a:	ee 0c       	add	r14, r14
    175c:	ff 1c       	adc	r15, r15
    175e:	00 1f       	adc	r16, r16
    1760:	11 1f       	adc	r17, r17
    1762:	2a 95       	dec	r18
    1764:	d2 f7       	brpl	.-12     	; 0x175a <__umoddi3+0x298>
    1766:	e9 8e       	std	Y+25, r14	; 0x19
    1768:	fa 8e       	std	Y+26, r15	; 0x1a
    176a:	0b 8f       	std	Y+27, r16	; 0x1b
    176c:	1c 8f       	std	Y+28, r17	; 0x1c
    176e:	25 01       	movw	r4, r10
    1770:	66 24       	eor	r6, r6
    1772:	77 24       	eor	r7, r7
    1774:	95 01       	movw	r18, r10
    1776:	84 01       	movw	r16, r8
    1778:	20 70       	andi	r18, 0x00	; 0
    177a:	30 70       	andi	r19, 0x00	; 0
    177c:	0d a3       	lds	r16, 0x5d
    177e:	1e a3       	lds	r17, 0x5e
    1780:	2f a3       	lds	r18, 0x5f
    1782:	38 a7       	lds	r19, 0x78
    1784:	69 a5       	lds	r22, 0x69
    1786:	7a a5       	lds	r23, 0x6a
    1788:	8b a5       	lds	r24, 0x6b
    178a:	9c a5       	lds	r25, 0x6c
    178c:	a3 01       	movw	r20, r6
    178e:	92 01       	movw	r18, r4
    1790:	0e 94 d2 17 	call	0x2fa4	; 0x2fa4 <__udivmodsi4>
    1794:	02 2f       	mov	r16, r18
    1796:	c3 2e       	mov	r12, r19
    1798:	14 2f       	mov	r17, r20
    179a:	f5 2e       	mov	r15, r21
    179c:	6d a7       	lds	r22, 0x7d
    179e:	7e a7       	lds	r23, 0x7e
    17a0:	8f a7       	lds	r24, 0x7f
    17a2:	98 ab       	sts	0x58, r25
    17a4:	69 a5       	lds	r22, 0x69
    17a6:	7a a5       	lds	r23, 0x6a
    17a8:	8b a5       	lds	r24, 0x6b
    17aa:	9c a5       	lds	r25, 0x6c
    17ac:	a3 01       	movw	r20, r6
    17ae:	92 01       	movw	r18, r4
    17b0:	0e 94 d2 17 	call	0x2fa4	; 0x2fa4 <__udivmodsi4>
    17b4:	60 2f       	mov	r22, r16
    17b6:	7c 2d       	mov	r23, r12
    17b8:	81 2f       	mov	r24, r17
    17ba:	9f 2d       	mov	r25, r15
    17bc:	2d a1       	lds	r18, 0x4d
    17be:	3e a1       	lds	r19, 0x4e
    17c0:	4f a1       	lds	r20, 0x4f
    17c2:	58 a5       	lds	r21, 0x68
    17c4:	0e 94 b3 17 	call	0x2f66	; 0x2f66 <__mulsi3>
    17c8:	dc 01       	movw	r26, r24
    17ca:	cb 01       	movw	r24, r22
    17cc:	0d a5       	lds	r16, 0x6d
    17ce:	1e a5       	lds	r17, 0x6e
    17d0:	2f a5       	lds	r18, 0x6f
    17d2:	38 a9       	sts	0x48, r19
    17d4:	78 01       	movw	r14, r16
    17d6:	dd 24       	eor	r13, r13
    17d8:	cc 24       	eor	r12, r12
    17da:	09 a1       	lds	r16, 0x49
    17dc:	1a a1       	lds	r17, 0x4a
    17de:	2b a1       	lds	r18, 0x4b
    17e0:	3c a1       	lds	r19, 0x4c
    17e2:	a9 01       	movw	r20, r18
    17e4:	66 27       	eor	r22, r22
    17e6:	77 27       	eor	r23, r23
    17e8:	c4 2a       	or	r12, r20
    17ea:	d5 2a       	or	r13, r21
    17ec:	e6 2a       	or	r14, r22
    17ee:	f7 2a       	or	r15, r23
    17f0:	c8 16       	cp	r12, r24
    17f2:	d9 06       	cpc	r13, r25
    17f4:	ea 06       	cpc	r14, r26
    17f6:	fb 06       	cpc	r15, r27
    17f8:	90 f4       	brcc	.+36     	; 0x181e <__umoddi3+0x35c>
    17fa:	c8 0c       	add	r12, r8
    17fc:	d9 1c       	adc	r13, r9
    17fe:	ea 1c       	adc	r14, r10
    1800:	fb 1c       	adc	r15, r11
    1802:	c8 14       	cp	r12, r8
    1804:	d9 04       	cpc	r13, r9
    1806:	ea 04       	cpc	r14, r10
    1808:	fb 04       	cpc	r15, r11
    180a:	48 f0       	brcs	.+18     	; 0x181e <__umoddi3+0x35c>
    180c:	c8 16       	cp	r12, r24
    180e:	d9 06       	cpc	r13, r25
    1810:	ea 06       	cpc	r14, r26
    1812:	fb 06       	cpc	r15, r27
    1814:	20 f4       	brcc	.+8      	; 0x181e <__umoddi3+0x35c>
    1816:	c8 0c       	add	r12, r8
    1818:	d9 1c       	adc	r13, r9
    181a:	ea 1c       	adc	r14, r10
    181c:	fb 1c       	adc	r15, r11
    181e:	c8 1a       	sub	r12, r24
    1820:	d9 0a       	sbc	r13, r25
    1822:	ea 0a       	sbc	r14, r26
    1824:	fb 0a       	sbc	r15, r27
    1826:	c7 01       	movw	r24, r14
    1828:	b6 01       	movw	r22, r12
    182a:	a3 01       	movw	r20, r6
    182c:	92 01       	movw	r18, r4
    182e:	0e 94 d2 17 	call	0x2fa4	; 0x2fa4 <__udivmodsi4>
    1832:	12 2f       	mov	r17, r18
    1834:	03 2f       	mov	r16, r19
    1836:	34 2e       	mov	r3, r20
    1838:	25 2e       	mov	r2, r21
    183a:	69 a7       	lds	r22, 0x79
    183c:	7a a7       	lds	r23, 0x7a
    183e:	8b a7       	lds	r24, 0x7b
    1840:	9c a7       	lds	r25, 0x7c
    1842:	c7 01       	movw	r24, r14
    1844:	b6 01       	movw	r22, r12
    1846:	a3 01       	movw	r20, r6
    1848:	92 01       	movw	r18, r4
    184a:	0e 94 d2 17 	call	0x2fa4	; 0x2fa4 <__udivmodsi4>
    184e:	61 2f       	mov	r22, r17
    1850:	70 2f       	mov	r23, r16
    1852:	83 2d       	mov	r24, r3
    1854:	92 2d       	mov	r25, r2
    1856:	2d a1       	lds	r18, 0x4d
    1858:	3e a1       	lds	r19, 0x4e
    185a:	4f a1       	lds	r20, 0x4f
    185c:	58 a5       	lds	r21, 0x68
    185e:	0e 94 b3 17 	call	0x2f66	; 0x2f66 <__mulsi3>
    1862:	dc 01       	movw	r26, r24
    1864:	cb 01       	movw	r24, r22
    1866:	09 a5       	lds	r16, 0x69
    1868:	1a a5       	lds	r17, 0x6a
    186a:	2b a5       	lds	r18, 0x6b
    186c:	3c a5       	lds	r19, 0x6c
    186e:	78 01       	movw	r14, r16
    1870:	dd 24       	eor	r13, r13
    1872:	cc 24       	eor	r12, r12
    1874:	49 a1       	lds	r20, 0x49
    1876:	5a a1       	lds	r21, 0x4a
    1878:	6b a1       	lds	r22, 0x4b
    187a:	7c a1       	lds	r23, 0x4c
    187c:	60 70       	andi	r22, 0x00	; 0
    187e:	70 70       	andi	r23, 0x00	; 0
    1880:	c4 2a       	or	r12, r20
    1882:	d5 2a       	or	r13, r21
    1884:	e6 2a       	or	r14, r22
    1886:	f7 2a       	or	r15, r23
    1888:	c8 16       	cp	r12, r24
    188a:	d9 06       	cpc	r13, r25
    188c:	ea 06       	cpc	r14, r26
    188e:	fb 06       	cpc	r15, r27
    1890:	90 f4       	brcc	.+36     	; 0x18b6 <__umoddi3+0x3f4>
    1892:	c8 0c       	add	r12, r8
    1894:	d9 1c       	adc	r13, r9
    1896:	ea 1c       	adc	r14, r10
    1898:	fb 1c       	adc	r15, r11
    189a:	c8 14       	cp	r12, r8
    189c:	d9 04       	cpc	r13, r9
    189e:	ea 04       	cpc	r14, r10
    18a0:	fb 04       	cpc	r15, r11
    18a2:	48 f0       	brcs	.+18     	; 0x18b6 <__umoddi3+0x3f4>
    18a4:	c8 16       	cp	r12, r24
    18a6:	d9 06       	cpc	r13, r25
    18a8:	ea 06       	cpc	r14, r26
    18aa:	fb 06       	cpc	r15, r27
    18ac:	20 f4       	brcc	.+8      	; 0x18b6 <__umoddi3+0x3f4>
    18ae:	c8 0c       	add	r12, r8
    18b0:	d9 1c       	adc	r13, r9
    18b2:	ea 1c       	adc	r14, r10
    18b4:	fb 1c       	adc	r15, r11
    18b6:	c8 1a       	sub	r12, r24
    18b8:	d9 0a       	sbc	r13, r25
    18ba:	ea 0a       	sbc	r14, r26
    18bc:	fb 0a       	sbc	r15, r27
    18be:	85 01       	movw	r16, r10
    18c0:	22 27       	eor	r18, r18
    18c2:	33 27       	eor	r19, r19
    18c4:	09 a3       	lds	r16, 0x59
    18c6:	1a a3       	lds	r17, 0x5a
    18c8:	2b a3       	lds	r18, 0x5b
    18ca:	3c a3       	lds	r19, 0x5c
    18cc:	95 01       	movw	r18, r10
    18ce:	84 01       	movw	r16, r8
    18d0:	20 70       	andi	r18, 0x00	; 0
    18d2:	30 70       	andi	r19, 0x00	; 0
    18d4:	09 a7       	lds	r16, 0x79
    18d6:	1a a7       	lds	r17, 0x7a
    18d8:	2b a7       	lds	r18, 0x7b
    18da:	3c a7       	lds	r19, 0x7c
    18dc:	c7 01       	movw	r24, r14
    18de:	b6 01       	movw	r22, r12
    18e0:	29 a1       	lds	r18, 0x49
    18e2:	3a a1       	lds	r19, 0x4a
    18e4:	4b a1       	lds	r20, 0x4b
    18e6:	5c a1       	lds	r21, 0x4c
    18e8:	0e 94 d2 17 	call	0x2fa4	; 0x2fa4 <__udivmodsi4>
    18ec:	12 2f       	mov	r17, r18
    18ee:	03 2f       	mov	r16, r19
    18f0:	44 2e       	mov	r4, r20
    18f2:	75 2e       	mov	r7, r21
    18f4:	6d a3       	lds	r22, 0x5d
    18f6:	7e a3       	lds	r23, 0x5e
    18f8:	8f a3       	lds	r24, 0x5f
    18fa:	98 a7       	lds	r25, 0x78
    18fc:	c7 01       	movw	r24, r14
    18fe:	b6 01       	movw	r22, r12
    1900:	29 a1       	lds	r18, 0x49
    1902:	3a a1       	lds	r19, 0x4a
    1904:	4b a1       	lds	r20, 0x4b
    1906:	5c a1       	lds	r21, 0x4c
    1908:	0e 94 d2 17 	call	0x2fa4	; 0x2fa4 <__udivmodsi4>
    190c:	61 2f       	mov	r22, r17
    190e:	70 2f       	mov	r23, r16
    1910:	84 2d       	mov	r24, r4
    1912:	97 2d       	mov	r25, r7
    1914:	29 a5       	lds	r18, 0x69
    1916:	3a a5       	lds	r19, 0x6a
    1918:	4b a5       	lds	r20, 0x6b
    191a:	5c a5       	lds	r21, 0x6c
    191c:	0e 94 b3 17 	call	0x2f66	; 0x2f66 <__mulsi3>
    1920:	dc 01       	movw	r26, r24
    1922:	cb 01       	movw	r24, r22
    1924:	0d a1       	lds	r16, 0x4d
    1926:	1e a1       	lds	r17, 0x4e
    1928:	2f a1       	lds	r18, 0x4f
    192a:	38 a5       	lds	r19, 0x68
    192c:	78 01       	movw	r14, r16
    192e:	dd 24       	eor	r13, r13
    1930:	cc 24       	eor	r12, r12
    1932:	09 8d       	ldd	r16, Y+25	; 0x19
    1934:	1a 8d       	ldd	r17, Y+26	; 0x1a
    1936:	2b 8d       	ldd	r18, Y+27	; 0x1b
    1938:	3c 8d       	ldd	r19, Y+28	; 0x1c
    193a:	a9 01       	movw	r20, r18
    193c:	66 27       	eor	r22, r22
    193e:	77 27       	eor	r23, r23
    1940:	c4 2a       	or	r12, r20
    1942:	d5 2a       	or	r13, r21
    1944:	e6 2a       	or	r14, r22
    1946:	f7 2a       	or	r15, r23
    1948:	c8 16       	cp	r12, r24
    194a:	d9 06       	cpc	r13, r25
    194c:	ea 06       	cpc	r14, r26
    194e:	fb 06       	cpc	r15, r27
    1950:	90 f4       	brcc	.+36     	; 0x1976 <__umoddi3+0x4b4>
    1952:	c8 0c       	add	r12, r8
    1954:	d9 1c       	adc	r13, r9
    1956:	ea 1c       	adc	r14, r10
    1958:	fb 1c       	adc	r15, r11
    195a:	c8 14       	cp	r12, r8
    195c:	d9 04       	cpc	r13, r9
    195e:	ea 04       	cpc	r14, r10
    1960:	fb 04       	cpc	r15, r11
    1962:	48 f0       	brcs	.+18     	; 0x1976 <__umoddi3+0x4b4>
    1964:	c8 16       	cp	r12, r24
    1966:	d9 06       	cpc	r13, r25
    1968:	ea 06       	cpc	r14, r26
    196a:	fb 06       	cpc	r15, r27
    196c:	20 f4       	brcc	.+8      	; 0x1976 <__umoddi3+0x4b4>
    196e:	c8 0c       	add	r12, r8
    1970:	d9 1c       	adc	r13, r9
    1972:	ea 1c       	adc	r14, r10
    1974:	fb 1c       	adc	r15, r11
    1976:	c8 1a       	sub	r12, r24
    1978:	d9 0a       	sbc	r13, r25
    197a:	ea 0a       	sbc	r14, r26
    197c:	fb 0a       	sbc	r15, r27
    197e:	c7 01       	movw	r24, r14
    1980:	b6 01       	movw	r22, r12
    1982:	29 a1       	lds	r18, 0x49
    1984:	3a a1       	lds	r19, 0x4a
    1986:	4b a1       	lds	r20, 0x4b
    1988:	5c a1       	lds	r21, 0x4c
    198a:	0e 94 d2 17 	call	0x2fa4	; 0x2fa4 <__udivmodsi4>
    198e:	12 2f       	mov	r17, r18
    1990:	03 2f       	mov	r16, r19
    1992:	44 2e       	mov	r4, r20
    1994:	75 2e       	mov	r7, r21
    1996:	6d a3       	lds	r22, 0x5d
    1998:	7e a3       	lds	r23, 0x5e
    199a:	8f a3       	lds	r24, 0x5f
    199c:	98 a7       	lds	r25, 0x78
    199e:	c7 01       	movw	r24, r14
    19a0:	b6 01       	movw	r22, r12
    19a2:	29 a1       	lds	r18, 0x49
    19a4:	3a a1       	lds	r19, 0x4a
    19a6:	4b a1       	lds	r20, 0x4b
    19a8:	5c a1       	lds	r21, 0x4c
    19aa:	0e 94 d2 17 	call	0x2fa4	; 0x2fa4 <__udivmodsi4>
    19ae:	61 2f       	mov	r22, r17
    19b0:	70 2f       	mov	r23, r16
    19b2:	84 2d       	mov	r24, r4
    19b4:	97 2d       	mov	r25, r7
    19b6:	29 a5       	lds	r18, 0x69
    19b8:	3a a5       	lds	r19, 0x6a
    19ba:	4b a5       	lds	r20, 0x6b
    19bc:	5c a5       	lds	r21, 0x6c
    19be:	0e 94 b3 17 	call	0x2f66	; 0x2f66 <__mulsi3>
    19c2:	ab 01       	movw	r20, r22
    19c4:	bc 01       	movw	r22, r24
    19c6:	cd a0       	lds	r28, 0x8d
    19c8:	de a0       	lds	r29, 0x8e
    19ca:	ef a0       	lds	r30, 0x8f
    19cc:	f8 a4       	lds	r31, 0xa8
    19ce:	d6 01       	movw	r26, r12
    19d0:	99 27       	eor	r25, r25
    19d2:	88 27       	eor	r24, r24
    19d4:	09 8d       	ldd	r16, Y+25	; 0x19
    19d6:	1a 8d       	ldd	r17, Y+26	; 0x1a
    19d8:	2b 8d       	ldd	r18, Y+27	; 0x1b
    19da:	3c 8d       	ldd	r19, Y+28	; 0x1c
    19dc:	20 70       	andi	r18, 0x00	; 0
    19de:	30 70       	andi	r19, 0x00	; 0
    19e0:	80 2b       	or	r24, r16
    19e2:	91 2b       	or	r25, r17
    19e4:	a2 2b       	or	r26, r18
    19e6:	b3 2b       	or	r27, r19
    19e8:	84 17       	cp	r24, r20
    19ea:	95 07       	cpc	r25, r21
    19ec:	a6 07       	cpc	r26, r22
    19ee:	b7 07       	cpc	r27, r23
    19f0:	90 f4       	brcc	.+36     	; 0x1a16 <__umoddi3+0x554>
    19f2:	88 0d       	add	r24, r8
    19f4:	99 1d       	adc	r25, r9
    19f6:	aa 1d       	adc	r26, r10
    19f8:	bb 1d       	adc	r27, r11
    19fa:	88 15       	cp	r24, r8
    19fc:	99 05       	cpc	r25, r9
    19fe:	aa 05       	cpc	r26, r10
    1a00:	bb 05       	cpc	r27, r11
    1a02:	48 f0       	brcs	.+18     	; 0x1a16 <__umoddi3+0x554>
    1a04:	84 17       	cp	r24, r20
    1a06:	95 07       	cpc	r25, r21
    1a08:	a6 07       	cpc	r26, r22
    1a0a:	b7 07       	cpc	r27, r23
    1a0c:	20 f4       	brcc	.+8      	; 0x1a16 <__umoddi3+0x554>
    1a0e:	88 0d       	add	r24, r8
    1a10:	99 1d       	adc	r25, r9
    1a12:	aa 1d       	adc	r26, r10
    1a14:	bb 1d       	adc	r27, r11
    1a16:	84 1b       	sub	r24, r20
    1a18:	95 0b       	sbc	r25, r21
    1a1a:	a6 0b       	sbc	r26, r22
    1a1c:	b7 0b       	sbc	r27, r23
    1a1e:	8c 01       	movw	r16, r24
    1a20:	9d 01       	movw	r18, r26
    1a22:	0d 8c       	ldd	r0, Y+29	; 0x1d
    1a24:	04 c0       	rjmp	.+8      	; 0x1a2e <__umoddi3+0x56c>
    1a26:	36 95       	lsr	r19
    1a28:	27 95       	ror	r18
    1a2a:	17 95       	ror	r17
    1a2c:	07 95       	ror	r16
    1a2e:	0a 94       	dec	r0
    1a30:	d2 f7       	brpl	.-12     	; 0x1a26 <__umoddi3+0x564>
    1a32:	09 83       	std	Y+1, r16	; 0x01
    1a34:	1a 83       	std	Y+2, r17	; 0x02
    1a36:	2b 83       	std	Y+3, r18	; 0x03
    1a38:	3c 83       	std	Y+4, r19	; 0x04
    1a3a:	1d 82       	std	Y+5, r1	; 0x05
    1a3c:	1e 82       	std	Y+6, r1	; 0x06
    1a3e:	1f 82       	std	Y+7, r1	; 0x07
    1a40:	18 86       	std	Y+8, r1	; 0x08
    1a42:	20 2f       	mov	r18, r16
    1a44:	3a 81       	ldd	r19, Y+2	; 0x02
    1a46:	4b 81       	ldd	r20, Y+3	; 0x03
    1a48:	5c 81       	ldd	r21, Y+4	; 0x04
    1a4a:	60 e0       	ldi	r22, 0x00	; 0
    1a4c:	d1 c2       	rjmp	.+1442   	; 0x1ff0 <__umoddi3+0xb2e>
    1a4e:	c8 16       	cp	r12, r24
    1a50:	d9 06       	cpc	r13, r25
    1a52:	ea 06       	cpc	r14, r26
    1a54:	fb 06       	cpc	r15, r27
    1a56:	18 f4       	brcc	.+6      	; 0x1a5e <__umoddi3+0x59c>
    1a58:	8f 2f       	mov	r24, r31
    1a5a:	9e 2f       	mov	r25, r30
    1a5c:	cc c2       	rjmp	.+1432   	; 0x1ff6 <__umoddi3+0xb34>
    1a5e:	80 30       	cpi	r24, 0x00	; 0
    1a60:	00 e0       	ldi	r16, 0x00	; 0
    1a62:	90 07       	cpc	r25, r16
    1a64:	01 e0       	ldi	r16, 0x01	; 1
    1a66:	a0 07       	cpc	r26, r16
    1a68:	00 e0       	ldi	r16, 0x00	; 0
    1a6a:	b0 07       	cpc	r27, r16
    1a6c:	50 f4       	brcc	.+20     	; 0x1a82 <__umoddi3+0x5c0>
    1a6e:	8f 3f       	cpi	r24, 0xFF	; 255
    1a70:	91 05       	cpc	r25, r1
    1a72:	a1 05       	cpc	r26, r1
    1a74:	b1 05       	cpc	r27, r1
    1a76:	09 f0       	breq	.+2      	; 0x1a7a <__umoddi3+0x5b8>
    1a78:	88 f4       	brcc	.+34     	; 0x1a9c <__umoddi3+0x5da>
    1a7a:	00 e0       	ldi	r16, 0x00	; 0
    1a7c:	10 e0       	ldi	r17, 0x00	; 0
    1a7e:	98 01       	movw	r18, r16
    1a80:	16 c0       	rjmp	.+44     	; 0x1aae <__umoddi3+0x5ec>
    1a82:	80 30       	cpi	r24, 0x00	; 0
    1a84:	10 e0       	ldi	r17, 0x00	; 0
    1a86:	91 07       	cpc	r25, r17
    1a88:	10 e0       	ldi	r17, 0x00	; 0
    1a8a:	a1 07       	cpc	r26, r17
    1a8c:	11 e0       	ldi	r17, 0x01	; 1
    1a8e:	b1 07       	cpc	r27, r17
    1a90:	50 f4       	brcc	.+20     	; 0x1aa6 <__umoddi3+0x5e4>
    1a92:	00 e1       	ldi	r16, 0x10	; 16
    1a94:	10 e0       	ldi	r17, 0x00	; 0
    1a96:	20 e0       	ldi	r18, 0x00	; 0
    1a98:	30 e0       	ldi	r19, 0x00	; 0
    1a9a:	09 c0       	rjmp	.+18     	; 0x1aae <__umoddi3+0x5ec>
    1a9c:	08 e0       	ldi	r16, 0x08	; 8
    1a9e:	10 e0       	ldi	r17, 0x00	; 0
    1aa0:	20 e0       	ldi	r18, 0x00	; 0
    1aa2:	30 e0       	ldi	r19, 0x00	; 0
    1aa4:	04 c0       	rjmp	.+8      	; 0x1aae <__umoddi3+0x5ec>
    1aa6:	08 e1       	ldi	r16, 0x18	; 24
    1aa8:	10 e0       	ldi	r17, 0x00	; 0
    1aaa:	20 e0       	ldi	r18, 0x00	; 0
    1aac:	30 e0       	ldi	r19, 0x00	; 0
    1aae:	ac 01       	movw	r20, r24
    1ab0:	bd 01       	movw	r22, r26
    1ab2:	00 2e       	mov	r0, r16
    1ab4:	04 c0       	rjmp	.+8      	; 0x1abe <__umoddi3+0x5fc>
    1ab6:	76 95       	lsr	r23
    1ab8:	67 95       	ror	r22
    1aba:	57 95       	ror	r21
    1abc:	47 95       	ror	r20
    1abe:	0a 94       	dec	r0
    1ac0:	d2 f7       	brpl	.-12     	; 0x1ab6 <__umoddi3+0x5f4>
    1ac2:	fa 01       	movw	r30, r20
    1ac4:	e2 58       	subi	r30, 0x82	; 130
    1ac6:	ff 4f       	sbci	r31, 0xFF	; 255
    1ac8:	40 81       	ld	r20, Z
    1aca:	04 0f       	add	r16, r20
    1acc:	11 1d       	adc	r17, r1
    1ace:	21 1d       	adc	r18, r1
    1ad0:	31 1d       	adc	r19, r1
    1ad2:	40 e2       	ldi	r20, 0x20	; 32
    1ad4:	50 e0       	ldi	r21, 0x00	; 0
    1ad6:	60 e0       	ldi	r22, 0x00	; 0
    1ad8:	70 e0       	ldi	r23, 0x00	; 0
    1ada:	40 1b       	sub	r20, r16
    1adc:	51 0b       	sbc	r21, r17
    1ade:	62 0b       	sbc	r22, r18
    1ae0:	73 0b       	sbc	r23, r19
    1ae2:	09 f0       	breq	.+2      	; 0x1ae6 <__umoddi3+0x624>
    1ae4:	40 c0       	rjmp	.+128    	; 0x1b66 <__umoddi3+0x6a4>
    1ae6:	8c 15       	cp	r24, r12
    1ae8:	9d 05       	cpc	r25, r13
    1aea:	ae 05       	cpc	r26, r14
    1aec:	bf 05       	cpc	r27, r15
    1aee:	48 f0       	brcs	.+18     	; 0x1b02 <__umoddi3+0x640>
    1af0:	09 8d       	ldd	r16, Y+25	; 0x19
    1af2:	1a 8d       	ldd	r17, Y+26	; 0x1a
    1af4:	2b 8d       	ldd	r18, Y+27	; 0x1b
    1af6:	3c 8d       	ldd	r19, Y+28	; 0x1c
    1af8:	08 15       	cp	r16, r8
    1afa:	19 05       	cpc	r17, r9
    1afc:	2a 05       	cpc	r18, r10
    1afe:	3b 05       	cpc	r19, r11
    1b00:	20 f1       	brcs	.+72     	; 0x1b4a <__umoddi3+0x688>
    1b02:	49 8d       	ldd	r20, Y+25	; 0x19
    1b04:	5a 8d       	ldd	r21, Y+26	; 0x1a
    1b06:	6b 8d       	ldd	r22, Y+27	; 0x1b
    1b08:	7c 8d       	ldd	r23, Y+28	; 0x1c
    1b0a:	48 19       	sub	r20, r8
    1b0c:	59 09       	sbc	r21, r9
    1b0e:	6a 09       	sbc	r22, r10
    1b10:	7b 09       	sbc	r23, r11
    1b12:	c8 1a       	sub	r12, r24
    1b14:	d9 0a       	sbc	r13, r25
    1b16:	ea 0a       	sbc	r14, r26
    1b18:	fb 0a       	sbc	r15, r27
    1b1a:	81 e0       	ldi	r24, 0x01	; 1
    1b1c:	90 e0       	ldi	r25, 0x00	; 0
    1b1e:	a0 e0       	ldi	r26, 0x00	; 0
    1b20:	b0 e0       	ldi	r27, 0x00	; 0
    1b22:	89 8c       	ldd	r8, Y+25	; 0x19
    1b24:	9a 8c       	ldd	r9, Y+26	; 0x1a
    1b26:	ab 8c       	ldd	r10, Y+27	; 0x1b
    1b28:	bc 8c       	ldd	r11, Y+28	; 0x1c
    1b2a:	84 16       	cp	r8, r20
    1b2c:	95 06       	cpc	r9, r21
    1b2e:	a6 06       	cpc	r10, r22
    1b30:	b7 06       	cpc	r11, r23
    1b32:	18 f0       	brcs	.+6      	; 0x1b3a <__umoddi3+0x678>
    1b34:	80 e0       	ldi	r24, 0x00	; 0
    1b36:	90 e0       	ldi	r25, 0x00	; 0
    1b38:	dc 01       	movw	r26, r24
    1b3a:	c8 1a       	sub	r12, r24
    1b3c:	d9 0a       	sbc	r13, r25
    1b3e:	ea 0a       	sbc	r14, r26
    1b40:	fb 0a       	sbc	r15, r27
    1b42:	49 8f       	std	Y+25, r20	; 0x19
    1b44:	5a 8f       	std	Y+26, r21	; 0x1a
    1b46:	6b 8f       	std	Y+27, r22	; 0x1b
    1b48:	7c 8f       	std	Y+28, r23	; 0x1c
    1b4a:	09 8d       	ldd	r16, Y+25	; 0x19
    1b4c:	1a 8d       	ldd	r17, Y+26	; 0x1a
    1b4e:	2b 8d       	ldd	r18, Y+27	; 0x1b
    1b50:	3c 8d       	ldd	r19, Y+28	; 0x1c
    1b52:	09 83       	std	Y+1, r16	; 0x01
    1b54:	1a 83       	std	Y+2, r17	; 0x02
    1b56:	2b 83       	std	Y+3, r18	; 0x03
    1b58:	3c 83       	std	Y+4, r19	; 0x04
    1b5a:	cd 82       	std	Y+5, r12	; 0x05
    1b5c:	de 82       	std	Y+6, r13	; 0x06
    1b5e:	ef 82       	std	Y+7, r14	; 0x07
    1b60:	f8 86       	std	Y+8, r15	; 0x08
    1b62:	29 8d       	ldd	r18, Y+25	; 0x19
    1b64:	41 c2       	rjmp	.+1154   	; 0x1fe8 <__umoddi3+0xb26>
    1b66:	34 2e       	mov	r3, r20
    1b68:	ac 01       	movw	r20, r24
    1b6a:	bd 01       	movw	r22, r26
    1b6c:	03 2c       	mov	r0, r3
    1b6e:	04 c0       	rjmp	.+8      	; 0x1b78 <__umoddi3+0x6b6>
    1b70:	44 0f       	add	r20, r20
    1b72:	55 1f       	adc	r21, r21
    1b74:	66 1f       	adc	r22, r22
    1b76:	77 1f       	adc	r23, r23
    1b78:	0a 94       	dec	r0
    1b7a:	d2 f7       	brpl	.-12     	; 0x1b70 <__umoddi3+0x6ae>
    1b7c:	20 2e       	mov	r2, r16
    1b7e:	d5 01       	movw	r26, r10
    1b80:	c4 01       	movw	r24, r8
    1b82:	04 c0       	rjmp	.+8      	; 0x1b8c <__umoddi3+0x6ca>
    1b84:	b6 95       	lsr	r27
    1b86:	a7 95       	ror	r26
    1b88:	97 95       	ror	r25
    1b8a:	87 95       	ror	r24
    1b8c:	0a 95       	dec	r16
    1b8e:	d2 f7       	brpl	.-12     	; 0x1b84 <__umoddi3+0x6c2>
    1b90:	48 2b       	or	r20, r24
    1b92:	59 2b       	or	r21, r25
    1b94:	6a 2b       	or	r22, r26
    1b96:	7b 2b       	or	r23, r27
    1b98:	4d 8f       	std	Y+29, r20	; 0x1d
    1b9a:	5e 8f       	std	Y+30, r21	; 0x1e
    1b9c:	6f 8f       	std	Y+31, r22	; 0x1f
    1b9e:	78 a3       	lds	r23, 0x58
    1ba0:	95 01       	movw	r18, r10
    1ba2:	84 01       	movw	r16, r8
    1ba4:	03 2c       	mov	r0, r3
    1ba6:	04 c0       	rjmp	.+8      	; 0x1bb0 <__umoddi3+0x6ee>
    1ba8:	00 0f       	add	r16, r16
    1baa:	11 1f       	adc	r17, r17
    1bac:	22 1f       	adc	r18, r18
    1bae:	33 1f       	adc	r19, r19
    1bb0:	0a 94       	dec	r0
    1bb2:	d2 f7       	brpl	.-12     	; 0x1ba8 <__umoddi3+0x6e6>
    1bb4:	09 a7       	lds	r16, 0x79
    1bb6:	1a a7       	lds	r17, 0x7a
    1bb8:	2b a7       	lds	r18, 0x7b
    1bba:	3c a7       	lds	r19, 0x7c
    1bbc:	46 01       	movw	r8, r12
    1bbe:	57 01       	movw	r10, r14
    1bc0:	02 2c       	mov	r0, r2
    1bc2:	04 c0       	rjmp	.+8      	; 0x1bcc <__umoddi3+0x70a>
    1bc4:	b6 94       	lsr	r11
    1bc6:	a7 94       	ror	r10
    1bc8:	97 94       	ror	r9
    1bca:	87 94       	ror	r8
    1bcc:	0a 94       	dec	r0
    1bce:	d2 f7       	brpl	.-12     	; 0x1bc4 <__umoddi3+0x702>
    1bd0:	8d a2       	lds	r24, 0x9d
    1bd2:	9e a2       	lds	r25, 0x9e
    1bd4:	af a2       	lds	r26, 0x9f
    1bd6:	b8 a6       	lds	r27, 0xb8
    1bd8:	97 01       	movw	r18, r14
    1bda:	86 01       	movw	r16, r12
    1bdc:	03 2c       	mov	r0, r3
    1bde:	04 c0       	rjmp	.+8      	; 0x1be8 <__umoddi3+0x726>
    1be0:	00 0f       	add	r16, r16
    1be2:	11 1f       	adc	r17, r17
    1be4:	22 1f       	adc	r18, r18
    1be6:	33 1f       	adc	r19, r19
    1be8:	0a 94       	dec	r0
    1bea:	d2 f7       	brpl	.-12     	; 0x1be0 <__umoddi3+0x71e>
    1bec:	89 8d       	ldd	r24, Y+25	; 0x19
    1bee:	9a 8d       	ldd	r25, Y+26	; 0x1a
    1bf0:	ab 8d       	ldd	r26, Y+27	; 0x1b
    1bf2:	bc 8d       	ldd	r27, Y+28	; 0x1c
    1bf4:	02 2c       	mov	r0, r2
    1bf6:	04 c0       	rjmp	.+8      	; 0x1c00 <__umoddi3+0x73e>
    1bf8:	b6 95       	lsr	r27
    1bfa:	a7 95       	ror	r26
    1bfc:	97 95       	ror	r25
    1bfe:	87 95       	ror	r24
    1c00:	0a 94       	dec	r0
    1c02:	d2 f7       	brpl	.-12     	; 0x1bf8 <__umoddi3+0x736>
    1c04:	08 2b       	or	r16, r24
    1c06:	19 2b       	or	r17, r25
    1c08:	2a 2b       	or	r18, r26
    1c0a:	3b 2b       	or	r19, r27
    1c0c:	09 a3       	lds	r16, 0x59
    1c0e:	1a a3       	lds	r17, 0x5a
    1c10:	2b a3       	lds	r18, 0x5b
    1c12:	3c a3       	lds	r19, 0x5c
    1c14:	89 8c       	ldd	r8, Y+25	; 0x19
    1c16:	9a 8c       	ldd	r9, Y+26	; 0x1a
    1c18:	ab 8c       	ldd	r10, Y+27	; 0x1b
    1c1a:	bc 8c       	ldd	r11, Y+28	; 0x1c
    1c1c:	03 2c       	mov	r0, r3
    1c1e:	04 c0       	rjmp	.+8      	; 0x1c28 <__umoddi3+0x766>
    1c20:	88 0c       	add	r8, r8
    1c22:	99 1c       	adc	r9, r9
    1c24:	aa 1c       	adc	r10, r10
    1c26:	bb 1c       	adc	r11, r11
    1c28:	0a 94       	dec	r0
    1c2a:	d2 f7       	brpl	.-12     	; 0x1c20 <__umoddi3+0x75e>
    1c2c:	89 8e       	std	Y+25, r8	; 0x19
    1c2e:	9a 8e       	std	Y+26, r9	; 0x1a
    1c30:	ab 8e       	std	Y+27, r10	; 0x1b
    1c32:	bc 8e       	std	Y+28, r11	; 0x1c
    1c34:	4b 01       	movw	r8, r22
    1c36:	aa 24       	eor	r10, r10
    1c38:	bb 24       	eor	r11, r11
    1c3a:	60 70       	andi	r22, 0x00	; 0
    1c3c:	70 70       	andi	r23, 0x00	; 0
    1c3e:	4d a7       	lds	r20, 0x7d
    1c40:	5e a7       	lds	r21, 0x7e
    1c42:	6f a7       	lds	r22, 0x7f
    1c44:	78 ab       	sts	0x58, r23
    1c46:	6d a1       	lds	r22, 0x4d
    1c48:	7e a1       	lds	r23, 0x4e
    1c4a:	8f a1       	lds	r24, 0x4f
    1c4c:	98 a5       	lds	r25, 0x68
    1c4e:	a5 01       	movw	r20, r10
    1c50:	94 01       	movw	r18, r8
    1c52:	0e 94 d2 17 	call	0x2fa4	; 0x2fa4 <__udivmodsi4>
    1c56:	29 01       	movw	r4, r18
    1c58:	3a 01       	movw	r6, r20
    1c5a:	6b 01       	movw	r12, r22
    1c5c:	7c 01       	movw	r14, r24
    1c5e:	6d a1       	lds	r22, 0x4d
    1c60:	7e a1       	lds	r23, 0x4e
    1c62:	8f a1       	lds	r24, 0x4f
    1c64:	98 a5       	lds	r25, 0x68
    1c66:	a5 01       	movw	r20, r10
    1c68:	94 01       	movw	r18, r8
    1c6a:	0e 94 d2 17 	call	0x2fa4	; 0x2fa4 <__udivmodsi4>
    1c6e:	c3 01       	movw	r24, r6
    1c70:	b2 01       	movw	r22, r4
    1c72:	2d a5       	lds	r18, 0x6d
    1c74:	3e a5       	lds	r19, 0x6e
    1c76:	4f a5       	lds	r20, 0x6f
    1c78:	58 a9       	sts	0x48, r21
    1c7a:	0e 94 b3 17 	call	0x2f66	; 0x2f66 <__mulsi3>
    1c7e:	dc 01       	movw	r26, r24
    1c80:	cb 01       	movw	r24, r22
    1c82:	76 01       	movw	r14, r12
    1c84:	dd 24       	eor	r13, r13
    1c86:	cc 24       	eor	r12, r12
    1c88:	09 a1       	lds	r16, 0x49
    1c8a:	1a a1       	lds	r17, 0x4a
    1c8c:	2b a1       	lds	r18, 0x4b
    1c8e:	3c a1       	lds	r19, 0x4c
    1c90:	a9 01       	movw	r20, r18
    1c92:	66 27       	eor	r22, r22
    1c94:	77 27       	eor	r23, r23
    1c96:	c4 2a       	or	r12, r20
    1c98:	d5 2a       	or	r13, r21
    1c9a:	e6 2a       	or	r14, r22
    1c9c:	f7 2a       	or	r15, r23
    1c9e:	c8 16       	cp	r12, r24
    1ca0:	d9 06       	cpc	r13, r25
    1ca2:	ea 06       	cpc	r14, r26
    1ca4:	fb 06       	cpc	r15, r27
    1ca6:	78 f5       	brcc	.+94     	; 0x1d06 <__umoddi3+0x844>
    1ca8:	93 01       	movw	r18, r6
    1caa:	82 01       	movw	r16, r4
    1cac:	01 50       	subi	r16, 0x01	; 1
    1cae:	10 40       	sbci	r17, 0x00	; 0
    1cb0:	20 40       	sbci	r18, 0x00	; 0
    1cb2:	30 40       	sbci	r19, 0x00	; 0
    1cb4:	0d a3       	lds	r16, 0x5d
    1cb6:	1e a3       	lds	r17, 0x5e
    1cb8:	2f a3       	lds	r18, 0x5f
    1cba:	38 a7       	lds	r19, 0x78
    1cbc:	0d 8d       	ldd	r16, Y+29	; 0x1d
    1cbe:	1e 8d       	ldd	r17, Y+30	; 0x1e
    1cc0:	2f 8d       	ldd	r18, Y+31	; 0x1f
    1cc2:	38 a1       	lds	r19, 0x48
    1cc4:	c0 0e       	add	r12, r16
    1cc6:	d1 1e       	adc	r13, r17
    1cc8:	e2 1e       	adc	r14, r18
    1cca:	f3 1e       	adc	r15, r19
    1ccc:	c0 16       	cp	r12, r16
    1cce:	d1 06       	cpc	r13, r17
    1cd0:	e2 06       	cpc	r14, r18
    1cd2:	f3 06       	cpc	r15, r19
    1cd4:	e0 f0       	brcs	.+56     	; 0x1d0e <__umoddi3+0x84c>
    1cd6:	c8 16       	cp	r12, r24
    1cd8:	d9 06       	cpc	r13, r25
    1cda:	ea 06       	cpc	r14, r26
    1cdc:	fb 06       	cpc	r15, r27
    1cde:	b8 f4       	brcc	.+46     	; 0x1d0e <__umoddi3+0x84c>
    1ce0:	93 01       	movw	r18, r6
    1ce2:	82 01       	movw	r16, r4
    1ce4:	02 50       	subi	r16, 0x02	; 2
    1ce6:	10 40       	sbci	r17, 0x00	; 0
    1ce8:	20 40       	sbci	r18, 0x00	; 0
    1cea:	30 40       	sbci	r19, 0x00	; 0
    1cec:	0d a3       	lds	r16, 0x5d
    1cee:	1e a3       	lds	r17, 0x5e
    1cf0:	2f a3       	lds	r18, 0x5f
    1cf2:	38 a7       	lds	r19, 0x78
    1cf4:	0d 8d       	ldd	r16, Y+29	; 0x1d
    1cf6:	1e 8d       	ldd	r17, Y+30	; 0x1e
    1cf8:	2f 8d       	ldd	r18, Y+31	; 0x1f
    1cfa:	38 a1       	lds	r19, 0x48
    1cfc:	c0 0e       	add	r12, r16
    1cfe:	d1 1e       	adc	r13, r17
    1d00:	e2 1e       	adc	r14, r18
    1d02:	f3 1e       	adc	r15, r19
    1d04:	04 c0       	rjmp	.+8      	; 0x1d0e <__umoddi3+0x84c>
    1d06:	4d a2       	lds	r20, 0x9d
    1d08:	5e a2       	lds	r21, 0x9e
    1d0a:	6f a2       	lds	r22, 0x9f
    1d0c:	78 a6       	lds	r23, 0xb8
    1d0e:	c8 1a       	sub	r12, r24
    1d10:	d9 0a       	sbc	r13, r25
    1d12:	ea 0a       	sbc	r14, r26
    1d14:	fb 0a       	sbc	r15, r27
    1d16:	c7 01       	movw	r24, r14
    1d18:	b6 01       	movw	r22, r12
    1d1a:	a5 01       	movw	r20, r10
    1d1c:	94 01       	movw	r18, r8
    1d1e:	0e 94 d2 17 	call	0x2fa4	; 0x2fa4 <__udivmodsi4>
    1d22:	29 01       	movw	r4, r18
    1d24:	3a 01       	movw	r6, r20
    1d26:	69 ab       	sts	0x59, r22
    1d28:	7a ab       	sts	0x5a, r23
    1d2a:	8b ab       	sts	0x5b, r24
    1d2c:	9c ab       	sts	0x5c, r25
    1d2e:	c7 01       	movw	r24, r14
    1d30:	b6 01       	movw	r22, r12
    1d32:	a5 01       	movw	r20, r10
    1d34:	94 01       	movw	r18, r8
    1d36:	0e 94 d2 17 	call	0x2fa4	; 0x2fa4 <__udivmodsi4>
    1d3a:	c3 01       	movw	r24, r6
    1d3c:	b2 01       	movw	r22, r4
    1d3e:	2d a5       	lds	r18, 0x6d
    1d40:	3e a5       	lds	r19, 0x6e
    1d42:	4f a5       	lds	r20, 0x6f
    1d44:	58 a9       	sts	0x48, r21
    1d46:	0e 94 b3 17 	call	0x2f66	; 0x2f66 <__mulsi3>
    1d4a:	8b 01       	movw	r16, r22
    1d4c:	9c 01       	movw	r18, r24
    1d4e:	89 a8       	sts	0x89, r24
    1d50:	9a a8       	sts	0x8a, r25
    1d52:	ab a8       	sts	0x8b, r26
    1d54:	bc a8       	sts	0x8c, r27
    1d56:	b4 01       	movw	r22, r8
    1d58:	55 27       	eor	r21, r21
    1d5a:	44 27       	eor	r20, r20
    1d5c:	89 a1       	lds	r24, 0x49
    1d5e:	9a a1       	lds	r25, 0x4a
    1d60:	ab a1       	lds	r26, 0x4b
    1d62:	bc a1       	lds	r27, 0x4c
    1d64:	a0 70       	andi	r26, 0x00	; 0
    1d66:	b0 70       	andi	r27, 0x00	; 0
    1d68:	48 2b       	or	r20, r24
    1d6a:	59 2b       	or	r21, r25
    1d6c:	6a 2b       	or	r22, r26
    1d6e:	7b 2b       	or	r23, r27
    1d70:	d3 01       	movw	r26, r6
    1d72:	c2 01       	movw	r24, r4
    1d74:	40 17       	cp	r20, r16
    1d76:	51 07       	cpc	r21, r17
    1d78:	62 07       	cpc	r22, r18
    1d7a:	73 07       	cpc	r23, r19
    1d7c:	f0 f4       	brcc	.+60     	; 0x1dba <__umoddi3+0x8f8>
    1d7e:	01 97       	sbiw	r24, 0x01	; 1
    1d80:	a1 09       	sbc	r26, r1
    1d82:	b1 09       	sbc	r27, r1
    1d84:	ad 8c       	ldd	r10, Y+29	; 0x1d
    1d86:	be 8c       	ldd	r11, Y+30	; 0x1e
    1d88:	cf 8c       	ldd	r12, Y+31	; 0x1f
    1d8a:	d8 a0       	lds	r29, 0x88
    1d8c:	4a 0d       	add	r20, r10
    1d8e:	5b 1d       	adc	r21, r11
    1d90:	6c 1d       	adc	r22, r12
    1d92:	7d 1d       	adc	r23, r13
    1d94:	4a 15       	cp	r20, r10
    1d96:	5b 05       	cpc	r21, r11
    1d98:	6c 05       	cpc	r22, r12
    1d9a:	7d 05       	cpc	r23, r13
    1d9c:	70 f0       	brcs	.+28     	; 0x1dba <__umoddi3+0x8f8>
    1d9e:	40 17       	cp	r20, r16
    1da0:	51 07       	cpc	r21, r17
    1da2:	62 07       	cpc	r22, r18
    1da4:	73 07       	cpc	r23, r19
    1da6:	48 f4       	brcc	.+18     	; 0x1dba <__umoddi3+0x8f8>
    1da8:	d3 01       	movw	r26, r6
    1daa:	c2 01       	movw	r24, r4
    1dac:	02 97       	sbiw	r24, 0x02	; 2
    1dae:	a1 09       	sbc	r26, r1
    1db0:	b1 09       	sbc	r27, r1
    1db2:	4a 0d       	add	r20, r10
    1db4:	5b 1d       	adc	r21, r11
    1db6:	6c 1d       	adc	r22, r12
    1db8:	7d 1d       	adc	r23, r13
    1dba:	6a 01       	movw	r12, r20
    1dbc:	7b 01       	movw	r14, r22
    1dbe:	c0 1a       	sub	r12, r16
    1dc0:	d1 0a       	sbc	r13, r17
    1dc2:	e2 0a       	sbc	r14, r18
    1dc4:	f3 0a       	sbc	r15, r19
    1dc6:	c9 a2       	lds	r28, 0x99
    1dc8:	da a2       	lds	r29, 0x9a
    1dca:	eb a2       	lds	r30, 0x9b
    1dcc:	fc a2       	lds	r31, 0x9c
    1dce:	ed a0       	lds	r30, 0x8d
    1dd0:	fe a0       	lds	r31, 0x8e
    1dd2:	0f a1       	lds	r16, 0x4f
    1dd4:	18 a5       	lds	r17, 0x68
    1dd6:	b7 01       	movw	r22, r14
    1dd8:	55 27       	eor	r21, r21
    1dda:	44 27       	eor	r20, r20
    1ddc:	48 2b       	or	r20, r24
    1dde:	59 2b       	or	r21, r25
    1de0:	6a 2b       	or	r22, r26
    1de2:	7b 2b       	or	r23, r27
    1de4:	ff ef       	ldi	r31, 0xFF	; 255
    1de6:	cf 2e       	mov	r12, r31
    1de8:	ff ef       	ldi	r31, 0xFF	; 255
    1dea:	df 2e       	mov	r13, r31
    1dec:	e1 2c       	mov	r14, r1
    1dee:	f1 2c       	mov	r15, r1
    1df0:	c4 22       	and	r12, r20
    1df2:	d5 22       	and	r13, r21
    1df4:	e6 22       	and	r14, r22
    1df6:	f7 22       	and	r15, r23
    1df8:	2b 01       	movw	r4, r22
    1dfa:	66 24       	eor	r6, r6
    1dfc:	77 24       	eor	r7, r7
    1dfe:	89 a4       	lds	r24, 0xa9
    1e00:	9a a4       	lds	r25, 0xaa
    1e02:	ab a4       	lds	r26, 0xab
    1e04:	bc a4       	lds	r27, 0xac
    1e06:	0f ef       	ldi	r16, 0xFF	; 255
    1e08:	1f ef       	ldi	r17, 0xFF	; 255
    1e0a:	20 e0       	ldi	r18, 0x00	; 0
    1e0c:	30 e0       	ldi	r19, 0x00	; 0
    1e0e:	80 22       	and	r8, r16
    1e10:	91 22       	and	r9, r17
    1e12:	a2 22       	and	r10, r18
    1e14:	b3 22       	and	r11, r19
    1e16:	29 a5       	lds	r18, 0x69
    1e18:	3a a5       	lds	r19, 0x6a
    1e1a:	4b a5       	lds	r20, 0x6b
    1e1c:	5c a5       	lds	r21, 0x6c
    1e1e:	8a 01       	movw	r16, r20
    1e20:	22 27       	eor	r18, r18
    1e22:	33 27       	eor	r19, r19
    1e24:	0d a3       	lds	r16, 0x5d
    1e26:	1e a3       	lds	r17, 0x5e
    1e28:	2f a3       	lds	r18, 0x5f
    1e2a:	38 a7       	lds	r19, 0x78
    1e2c:	c7 01       	movw	r24, r14
    1e2e:	b6 01       	movw	r22, r12
    1e30:	a5 01       	movw	r20, r10
    1e32:	94 01       	movw	r18, r8
    1e34:	0e 94 b3 17 	call	0x2f66	; 0x2f66 <__mulsi3>
    1e38:	6d a7       	lds	r22, 0x7d
    1e3a:	7e a7       	lds	r23, 0x7e
    1e3c:	8f a7       	lds	r24, 0x7f
    1e3e:	98 ab       	sts	0x58, r25
    1e40:	c7 01       	movw	r24, r14
    1e42:	b6 01       	movw	r22, r12
    1e44:	2d a1       	lds	r18, 0x4d
    1e46:	3e a1       	lds	r19, 0x4e
    1e48:	4f a1       	lds	r20, 0x4f
    1e4a:	58 a5       	lds	r21, 0x68
    1e4c:	0e 94 b3 17 	call	0x2f66	; 0x2f66 <__mulsi3>
    1e50:	6b 01       	movw	r12, r22
    1e52:	7c 01       	movw	r14, r24
    1e54:	c3 01       	movw	r24, r6
    1e56:	b2 01       	movw	r22, r4
    1e58:	a5 01       	movw	r20, r10
    1e5a:	94 01       	movw	r18, r8
    1e5c:	0e 94 b3 17 	call	0x2f66	; 0x2f66 <__mulsi3>
    1e60:	4b 01       	movw	r8, r22
    1e62:	5c 01       	movw	r10, r24
    1e64:	c3 01       	movw	r24, r6
    1e66:	b2 01       	movw	r22, r4
    1e68:	2d a1       	lds	r18, 0x4d
    1e6a:	3e a1       	lds	r19, 0x4e
    1e6c:	4f a1       	lds	r20, 0x4f
    1e6e:	58 a5       	lds	r21, 0x68
    1e70:	0e 94 b3 17 	call	0x2f66	; 0x2f66 <__mulsi3>
    1e74:	ab 01       	movw	r20, r22
    1e76:	bc 01       	movw	r22, r24
    1e78:	c8 0c       	add	r12, r8
    1e7a:	d9 1c       	adc	r13, r9
    1e7c:	ea 1c       	adc	r14, r10
    1e7e:	fb 1c       	adc	r15, r11
    1e80:	0d a5       	lds	r16, 0x6d
    1e82:	1e a5       	lds	r17, 0x6e
    1e84:	2f a5       	lds	r18, 0x6f
    1e86:	38 a9       	sts	0x48, r19
    1e88:	c9 01       	movw	r24, r18
    1e8a:	aa 27       	eor	r26, r26
    1e8c:	bb 27       	eor	r27, r27
    1e8e:	c8 0e       	add	r12, r24
    1e90:	d9 1e       	adc	r13, r25
    1e92:	ea 1e       	adc	r14, r26
    1e94:	fb 1e       	adc	r15, r27
    1e96:	c8 14       	cp	r12, r8
    1e98:	d9 04       	cpc	r13, r9
    1e9a:	ea 04       	cpc	r14, r10
    1e9c:	fb 04       	cpc	r15, r11
    1e9e:	20 f4       	brcc	.+8      	; 0x1ea8 <__umoddi3+0x9e6>
    1ea0:	40 50       	subi	r20, 0x00	; 0
    1ea2:	50 40       	sbci	r21, 0x00	; 0
    1ea4:	6f 4f       	sbci	r22, 0xFF	; 255
    1ea6:	7f 4f       	sbci	r23, 0xFF	; 255
    1ea8:	c7 01       	movw	r24, r14
    1eaa:	aa 27       	eor	r26, r26
    1eac:	bb 27       	eor	r27, r27
    1eae:	84 0f       	add	r24, r20
    1eb0:	95 1f       	adc	r25, r21
    1eb2:	a6 1f       	adc	r26, r22
    1eb4:	b7 1f       	adc	r27, r23
    1eb6:	76 01       	movw	r14, r12
    1eb8:	dd 24       	eor	r13, r13
    1eba:	cc 24       	eor	r12, r12
    1ebc:	4d a5       	lds	r20, 0x6d
    1ebe:	5e a5       	lds	r21, 0x6e
    1ec0:	6f a5       	lds	r22, 0x6f
    1ec2:	78 a9       	sts	0x48, r23
    1ec4:	60 70       	andi	r22, 0x00	; 0
    1ec6:	70 70       	andi	r23, 0x00	; 0
    1ec8:	c4 0e       	add	r12, r20
    1eca:	d5 1e       	adc	r13, r21
    1ecc:	e6 1e       	adc	r14, r22
    1ece:	f7 1e       	adc	r15, r23
    1ed0:	89 a0       	lds	r24, 0x89
    1ed2:	9a a0       	lds	r25, 0x8a
    1ed4:	ab a0       	lds	r26, 0x8b
    1ed6:	bc a0       	lds	r27, 0x8c
    1ed8:	88 16       	cp	r8, r24
    1eda:	99 06       	cpc	r9, r25
    1edc:	aa 06       	cpc	r10, r26
    1ede:	bb 06       	cpc	r11, r27
    1ee0:	70 f0       	brcs	.+28     	; 0x1efe <__umoddi3+0xa3c>
    1ee2:	88 15       	cp	r24, r8
    1ee4:	99 05       	cpc	r25, r9
    1ee6:	aa 05       	cpc	r26, r10
    1ee8:	bb 05       	cpc	r27, r11
    1eea:	99 f5       	brne	.+102    	; 0x1f52 <__umoddi3+0xa90>
    1eec:	09 8d       	ldd	r16, Y+25	; 0x19
    1eee:	1a 8d       	ldd	r17, Y+26	; 0x1a
    1ef0:	2b 8d       	ldd	r18, Y+27	; 0x1b
    1ef2:	3c 8d       	ldd	r19, Y+28	; 0x1c
    1ef4:	0c 15       	cp	r16, r12
    1ef6:	1d 05       	cpc	r17, r13
    1ef8:	2e 05       	cpc	r18, r14
    1efa:	3f 05       	cpc	r19, r15
    1efc:	50 f5       	brcc	.+84     	; 0x1f52 <__umoddi3+0xa90>
    1efe:	b7 01       	movw	r22, r14
    1f00:	a6 01       	movw	r20, r12
    1f02:	89 a4       	lds	r24, 0xa9
    1f04:	9a a4       	lds	r25, 0xaa
    1f06:	ab a4       	lds	r26, 0xab
    1f08:	bc a4       	lds	r27, 0xac
    1f0a:	48 19       	sub	r20, r8
    1f0c:	59 09       	sbc	r21, r9
    1f0e:	6a 09       	sbc	r22, r10
    1f10:	7b 09       	sbc	r23, r11
    1f12:	8c 01       	movw	r16, r24
    1f14:	9d 01       	movw	r18, r26
    1f16:	8d 8c       	ldd	r8, Y+29	; 0x1d
    1f18:	9e 8c       	ldd	r9, Y+30	; 0x1e
    1f1a:	af 8c       	ldd	r10, Y+31	; 0x1f
    1f1c:	b8 a0       	lds	r27, 0x88
    1f1e:	08 19       	sub	r16, r8
    1f20:	19 09       	sbc	r17, r9
    1f22:	2a 09       	sbc	r18, r10
    1f24:	3b 09       	sbc	r19, r11
    1f26:	81 e0       	ldi	r24, 0x01	; 1
    1f28:	90 e0       	ldi	r25, 0x00	; 0
    1f2a:	a0 e0       	ldi	r26, 0x00	; 0
    1f2c:	b0 e0       	ldi	r27, 0x00	; 0
    1f2e:	c4 16       	cp	r12, r20
    1f30:	d5 06       	cpc	r13, r21
    1f32:	e6 06       	cpc	r14, r22
    1f34:	f7 06       	cpc	r15, r23
    1f36:	18 f0       	brcs	.+6      	; 0x1f3e <__umoddi3+0xa7c>
    1f38:	80 e0       	ldi	r24, 0x00	; 0
    1f3a:	90 e0       	ldi	r25, 0x00	; 0
    1f3c:	dc 01       	movw	r26, r24
    1f3e:	58 01       	movw	r10, r16
    1f40:	69 01       	movw	r12, r18
    1f42:	a8 1a       	sub	r10, r24
    1f44:	b9 0a       	sbc	r11, r25
    1f46:	ca 0a       	sbc	r12, r26
    1f48:	db 0a       	sbc	r13, r27
    1f4a:	d6 01       	movw	r26, r12
    1f4c:	c5 01       	movw	r24, r10
    1f4e:	6a 01       	movw	r12, r20
    1f50:	7b 01       	movw	r14, r22
    1f52:	89 8c       	ldd	r8, Y+25	; 0x19
    1f54:	9a 8c       	ldd	r9, Y+26	; 0x1a
    1f56:	ab 8c       	ldd	r10, Y+27	; 0x1b
    1f58:	bc 8c       	ldd	r11, Y+28	; 0x1c
    1f5a:	8c 18       	sub	r8, r12
    1f5c:	9d 08       	sbc	r9, r13
    1f5e:	ae 08       	sbc	r10, r14
    1f60:	bf 08       	sbc	r11, r15
    1f62:	49 a1       	lds	r20, 0x49
    1f64:	5a a1       	lds	r21, 0x4a
    1f66:	6b a1       	lds	r22, 0x4b
    1f68:	7c a1       	lds	r23, 0x4c
    1f6a:	48 1b       	sub	r20, r24
    1f6c:	59 0b       	sbc	r21, r25
    1f6e:	6a 0b       	sbc	r22, r26
    1f70:	7b 0b       	sbc	r23, r27
    1f72:	81 e0       	ldi	r24, 0x01	; 1
    1f74:	90 e0       	ldi	r25, 0x00	; 0
    1f76:	a0 e0       	ldi	r26, 0x00	; 0
    1f78:	b0 e0       	ldi	r27, 0x00	; 0
    1f7a:	c9 8c       	ldd	r12, Y+25	; 0x19
    1f7c:	da 8c       	ldd	r13, Y+26	; 0x1a
    1f7e:	eb 8c       	ldd	r14, Y+27	; 0x1b
    1f80:	fc 8c       	ldd	r15, Y+28	; 0x1c
    1f82:	c8 14       	cp	r12, r8
    1f84:	d9 04       	cpc	r13, r9
    1f86:	ea 04       	cpc	r14, r10
    1f88:	fb 04       	cpc	r15, r11
    1f8a:	18 f0       	brcs	.+6      	; 0x1f92 <__umoddi3+0xad0>
    1f8c:	80 e0       	ldi	r24, 0x00	; 0
    1f8e:	90 e0       	ldi	r25, 0x00	; 0
    1f90:	dc 01       	movw	r26, r24
    1f92:	48 1b       	sub	r20, r24
    1f94:	59 0b       	sbc	r21, r25
    1f96:	6a 0b       	sbc	r22, r26
    1f98:	7b 0b       	sbc	r23, r27
    1f9a:	8a 01       	movw	r16, r20
    1f9c:	9b 01       	movw	r18, r22
    1f9e:	04 c0       	rjmp	.+8      	; 0x1fa8 <__umoddi3+0xae6>
    1fa0:	00 0f       	add	r16, r16
    1fa2:	11 1f       	adc	r17, r17
    1fa4:	22 1f       	adc	r18, r18
    1fa6:	33 1f       	adc	r19, r19
    1fa8:	2a 94       	dec	r2
    1faa:	d2 f7       	brpl	.-12     	; 0x1fa0 <__umoddi3+0xade>
    1fac:	03 2c       	mov	r0, r3
    1fae:	04 c0       	rjmp	.+8      	; 0x1fb8 <__umoddi3+0xaf6>
    1fb0:	b6 94       	lsr	r11
    1fb2:	a7 94       	ror	r10
    1fb4:	97 94       	ror	r9
    1fb6:	87 94       	ror	r8
    1fb8:	0a 94       	dec	r0
    1fba:	d2 f7       	brpl	.-12     	; 0x1fb0 <__umoddi3+0xaee>
    1fbc:	08 29       	or	r16, r8
    1fbe:	19 29       	or	r17, r9
    1fc0:	2a 29       	or	r18, r10
    1fc2:	3b 29       	or	r19, r11
    1fc4:	09 83       	std	Y+1, r16	; 0x01
    1fc6:	1a 83       	std	Y+2, r17	; 0x02
    1fc8:	2b 83       	std	Y+3, r18	; 0x03
    1fca:	3c 83       	std	Y+4, r19	; 0x04
    1fcc:	6a 01       	movw	r12, r20
    1fce:	7b 01       	movw	r14, r22
    1fd0:	04 c0       	rjmp	.+8      	; 0x1fda <__umoddi3+0xb18>
    1fd2:	f6 94       	lsr	r15
    1fd4:	e7 94       	ror	r14
    1fd6:	d7 94       	ror	r13
    1fd8:	c7 94       	ror	r12
    1fda:	3a 94       	dec	r3
    1fdc:	d2 f7       	brpl	.-12     	; 0x1fd2 <__umoddi3+0xb10>
    1fde:	cd 82       	std	Y+5, r12	; 0x05
    1fe0:	de 82       	std	Y+6, r13	; 0x06
    1fe2:	ef 82       	std	Y+7, r14	; 0x07
    1fe4:	f8 86       	std	Y+8, r15	; 0x08
    1fe6:	20 2f       	mov	r18, r16
    1fe8:	3a 81       	ldd	r19, Y+2	; 0x02
    1fea:	4b 81       	ldd	r20, Y+3	; 0x03
    1fec:	5c 81       	ldd	r21, Y+4	; 0x04
    1fee:	6c 2d       	mov	r22, r12
    1ff0:	7e 81       	ldd	r23, Y+6	; 0x06
    1ff2:	8f 81       	ldd	r24, Y+7	; 0x07
    1ff4:	98 85       	ldd	r25, Y+8	; 0x08
    1ff6:	e4 96       	adiw	r28, 0x34	; 52
    1ff8:	e2 e1       	ldi	r30, 0x12	; 18
    1ffa:	0c 94 10 18 	jmp	0x3020	; 0x3020 <__epilogue_restores__>

00001ffe <main>:
    1ffe:	cf 93       	push	r28
    2000:	df 93       	push	r29
    2002:	cd b7       	in	r28, 0x3d	; 61
    2004:	de b7       	in	r29, 0x3e	; 62
    2006:	60 97       	sbiw	r28, 0x10	; 16
    2008:	0f b6       	in	r0, 0x3f	; 63
    200a:	f8 94       	cli
    200c:	de bf       	out	0x3e, r29	; 62
    200e:	0f be       	out	0x3f, r0	; 63
    2010:	cd bf       	out	0x3d, r28	; 61
    2012:	0e 94 75 03 	call	0x6ea	; 0x6ea <LCD_vInit>
    2016:	84 e4       	ldi	r24, 0x44	; 68
    2018:	0e 94 c9 02 	call	0x592	; 0x592 <KEYPAD_vInit>
    201c:	18 86       	std	Y+8, r1	; 0x08
    201e:	19 86       	std	Y+9, r1	; 0x09
    2020:	1a 86       	std	Y+10, r1	; 0x0a
    2022:	1b 86       	std	Y+11, r1	; 0x0b
    2024:	1c 86       	std	Y+12, r1	; 0x0c
    2026:	1d 86       	std	Y+13, r1	; 0x0d
    2028:	1e 86       	std	Y+14, r1	; 0x0e
    202a:	1f 86       	std	Y+15, r1	; 0x0f
    202c:	9e 01       	movw	r18, r28
    202e:	2f 5f       	subi	r18, 0xFF	; 255
    2030:	3f 4f       	sbci	r19, 0xFF	; 255
    2032:	3f 83       	std	Y+7, r19	; 0x07
    2034:	2e 83       	std	Y+6, r18	; 0x06
    2036:	19 82       	std	Y+1, r1	; 0x01
    2038:	1a 82       	std	Y+2, r1	; 0x02
    203a:	1b 82       	std	Y+3, r1	; 0x03
    203c:	1c 82       	std	Y+4, r1	; 0x04
    203e:	1d 82       	std	Y+5, r1	; 0x05
    2040:	8e 01       	movw	r16, r28
    2042:	0a 5f       	subi	r16, 0xFA	; 250
    2044:	1f 4f       	sbci	r17, 0xFF	; 255
    2046:	84 e4       	ldi	r24, 0x44	; 68
    2048:	0e 94 e4 02 	call	0x5c8	; 0x5c8 <KEYPAD_u8Read>
    204c:	98 2e       	mov	r9, r24
    204e:	c8 2e       	mov	r12, r24
    2050:	dd 24       	eor	r13, r13
    2052:	3f ef       	ldi	r19, 0xFF	; 255
    2054:	c3 16       	cp	r12, r19
    2056:	d1 04       	cpc	r13, r1
    2058:	b1 f3       	breq	.-20     	; 0x2046 <main+0x48>
    205a:	4b e2       	ldi	r20, 0x2B	; 43
    205c:	c4 16       	cp	r12, r20
    205e:	d1 04       	cpc	r13, r1
    2060:	61 f0       	breq	.+24     	; 0x207a <main+0x7c>
    2062:	5d e2       	ldi	r21, 0x2D	; 45
    2064:	c5 16       	cp	r12, r21
    2066:	d1 04       	cpc	r13, r1
    2068:	41 f0       	breq	.+16     	; 0x207a <main+0x7c>
    206a:	6f e2       	ldi	r22, 0x2F	; 47
    206c:	c6 16       	cp	r12, r22
    206e:	d1 04       	cpc	r13, r1
    2070:	21 f0       	breq	.+8      	; 0x207a <main+0x7c>
    2072:	7a e2       	ldi	r23, 0x2A	; 42
    2074:	c7 16       	cp	r12, r23
    2076:	d1 04       	cpc	r13, r1
    2078:	11 f4       	brne	.+4      	; 0x207e <main+0x80>
    207a:	98 8a       	std	Y+16, r9	; 0x10
    207c:	14 c0       	rjmp	.+40     	; 0x20a6 <main+0xa8>
    207e:	0e 94 d4 03 	call	0x7a8	; 0x7a8 <LCD_vSendChar>
    2082:	89 2d       	mov	r24, r9
    2084:	80 53       	subi	r24, 0x30	; 48
    2086:	d8 01       	movw	r26, r16
    2088:	8e 93       	st	-X, r24
    208a:	8d 01       	movw	r16, r26
    208c:	ee 81       	ldd	r30, Y+6	; 0x06
    208e:	ff 81       	ldd	r31, Y+7	; 0x07
    2090:	ae 17       	cp	r26, r30
    2092:	bf 07       	cpc	r27, r31
    2094:	41 f0       	breq	.+16     	; 0x20a6 <main+0xa8>
    2096:	f1 e4       	ldi	r31, 0x41	; 65
    2098:	cf 16       	cp	r12, r31
    209a:	d1 04       	cpc	r13, r1
    209c:	21 f0       	breq	.+8      	; 0x20a6 <main+0xa8>
    209e:	2d e3       	ldi	r18, 0x3D	; 61
    20a0:	c2 16       	cp	r12, r18
    20a2:	d1 04       	cpc	r13, r1
    20a4:	81 f6       	brne	.-96     	; 0x2046 <main+0x48>
    20a6:	6b 81       	ldd	r22, Y+3	; 0x03
    20a8:	8d 81       	ldd	r24, Y+5	; 0x05
    20aa:	90 e0       	ldi	r25, 0x00	; 0
    20ac:	a0 e1       	ldi	r26, 0x10	; 16
    20ae:	b7 e2       	ldi	r27, 0x27	; 39
    20b0:	8a 9f       	mul	r24, r26
    20b2:	a0 01       	movw	r20, r0
    20b4:	8b 9f       	mul	r24, r27
    20b6:	50 0d       	add	r21, r0
    20b8:	9a 9f       	mul	r25, r26
    20ba:	50 0d       	add	r21, r0
    20bc:	11 24       	eor	r1, r1
    20be:	2c 81       	ldd	r18, Y+4	; 0x04
    20c0:	30 e0       	ldi	r19, 0x00	; 0
    20c2:	e8 ee       	ldi	r30, 0xE8	; 232
    20c4:	f3 e0       	ldi	r31, 0x03	; 3
    20c6:	2e 9f       	mul	r18, r30
    20c8:	c0 01       	movw	r24, r0
    20ca:	2f 9f       	mul	r18, r31
    20cc:	90 0d       	add	r25, r0
    20ce:	3e 9f       	mul	r19, r30
    20d0:	90 0d       	add	r25, r0
    20d2:	11 24       	eor	r1, r1
    20d4:	48 0f       	add	r20, r24
    20d6:	59 1f       	adc	r21, r25
    20d8:	8a 81       	ldd	r24, Y+2	; 0x02
    20da:	90 e0       	ldi	r25, 0x00	; 0
    20dc:	9c 01       	movw	r18, r24
    20de:	22 0f       	add	r18, r18
    20e0:	33 1f       	adc	r19, r19
    20e2:	13 e0       	ldi	r17, 0x03	; 3
    20e4:	88 0f       	add	r24, r24
    20e6:	99 1f       	adc	r25, r25
    20e8:	1a 95       	dec	r17
    20ea:	e1 f7       	brne	.-8      	; 0x20e4 <main+0xe6>
    20ec:	28 0f       	add	r18, r24
    20ee:	39 1f       	adc	r19, r25
    20f0:	f4 e6       	ldi	r31, 0x64	; 100
    20f2:	6f 9f       	mul	r22, r31
    20f4:	c0 01       	movw	r24, r0
    20f6:	11 24       	eor	r1, r1
    20f8:	28 0f       	add	r18, r24
    20fa:	39 1f       	adc	r19, r25
    20fc:	42 0f       	add	r20, r18
    20fe:	53 1f       	adc	r21, r19
    2100:	89 81       	ldd	r24, Y+1	; 0x01
    2102:	48 0f       	add	r20, r24
    2104:	51 1d       	adc	r21, r1
    2106:	4a 01       	movw	r8, r20
    2108:	aa 24       	eor	r10, r10
    210a:	97 fc       	sbrc	r9, 7
    210c:	a0 94       	com	r10
    210e:	ba 2c       	mov	r11, r10
    2110:	88 89       	ldd	r24, Y+16	; 0x10
    2112:	05 c0       	rjmp	.+10     	; 0x211e <main+0x120>
    2114:	84 e4       	ldi	r24, 0x44	; 68
    2116:	0e 94 e4 02 	call	0x5c8	; 0x5c8 <KEYPAD_u8Read>
    211a:	c8 2e       	mov	r12, r24
    211c:	dd 24       	eor	r13, r13
    211e:	2b e2       	ldi	r18, 0x2B	; 43
    2120:	c2 16       	cp	r12, r18
    2122:	d1 04       	cpc	r13, r1
    2124:	a9 f0       	breq	.+42     	; 0x2150 <main+0x152>
    2126:	3d e2       	ldi	r19, 0x2D	; 45
    2128:	c3 16       	cp	r12, r19
    212a:	d1 04       	cpc	r13, r1
    212c:	89 f0       	breq	.+34     	; 0x2150 <main+0x152>
    212e:	4f e2       	ldi	r20, 0x2F	; 47
    2130:	c4 16       	cp	r12, r20
    2132:	d1 04       	cpc	r13, r1
    2134:	69 f0       	breq	.+26     	; 0x2150 <main+0x152>
    2136:	5a e2       	ldi	r21, 0x2A	; 42
    2138:	c5 16       	cp	r12, r21
    213a:	d1 04       	cpc	r13, r1
    213c:	49 f0       	breq	.+18     	; 0x2150 <main+0x152>
    213e:	61 e4       	ldi	r22, 0x41	; 65
    2140:	c6 16       	cp	r12, r22
    2142:	d1 04       	cpc	r13, r1
    2144:	51 f0       	breq	.+20     	; 0x215a <main+0x15c>
    2146:	7d e3       	ldi	r23, 0x3D	; 61
    2148:	c7 16       	cp	r12, r23
    214a:	d1 04       	cpc	r13, r1
    214c:	19 f7       	brne	.-58     	; 0x2114 <main+0x116>
    214e:	05 c0       	rjmp	.+10     	; 0x215a <main+0x15c>
    2150:	88 8b       	std	Y+16, r24	; 0x10
    2152:	8c 2d       	mov	r24, r12
    2154:	0e 94 d4 03 	call	0x7a8	; 0x7a8 <LCD_vSendChar>
    2158:	01 c0       	rjmp	.+2      	; 0x215c <main+0x15e>
    215a:	88 8b       	std	Y+16, r24	; 0x10
    215c:	19 82       	std	Y+1, r1	; 0x01
    215e:	1a 82       	std	Y+2, r1	; 0x02
    2160:	1b 82       	std	Y+3, r1	; 0x03
    2162:	1c 82       	std	Y+4, r1	; 0x04
    2164:	1d 82       	std	Y+5, r1	; 0x05
    2166:	04 e0       	ldi	r16, 0x04	; 4
    2168:	70 2e       	mov	r7, r16
    216a:	34 c0       	rjmp	.+104    	; 0x21d4 <main+0x1d6>
    216c:	84 e4       	ldi	r24, 0x44	; 68
    216e:	0e 94 e4 02 	call	0x5c8	; 0x5c8 <KEYPAD_u8Read>
    2172:	68 2e       	mov	r6, r24
    2174:	08 2f       	mov	r16, r24
    2176:	10 e0       	ldi	r17, 0x00	; 0
    2178:	0f 3f       	cpi	r16, 0xFF	; 255
    217a:	11 05       	cpc	r17, r1
    217c:	b9 f3       	breq	.-18     	; 0x216c <main+0x16e>
    217e:	68 01       	movw	r12, r16
    2180:	0b 32       	cpi	r16, 0x2B	; 43
    2182:	11 05       	cpc	r17, r1
    2184:	49 f0       	breq	.+18     	; 0x2198 <main+0x19a>
    2186:	0d 32       	cpi	r16, 0x2D	; 45
    2188:	11 05       	cpc	r17, r1
    218a:	31 f0       	breq	.+12     	; 0x2198 <main+0x19a>
    218c:	0f 32       	cpi	r16, 0x2F	; 47
    218e:	11 05       	cpc	r17, r1
    2190:	19 f0       	breq	.+6      	; 0x2198 <main+0x19a>
    2192:	0a 32       	cpi	r16, 0x2A	; 42
    2194:	11 05       	cpc	r17, r1
    2196:	39 f4       	brne	.+14     	; 0x21a6 <main+0x1a8>
    2198:	86 2d       	mov	r24, r6
    219a:	0e 94 d4 03 	call	0x7a8	; 0x7a8 <LCD_vSendChar>
    219e:	88 24       	eor	r8, r8
    21a0:	99 24       	eor	r9, r9
    21a2:	54 01       	movw	r10, r8
    21a4:	16 c0       	rjmp	.+44     	; 0x21d2 <main+0x1d4>
    21a6:	01 34       	cpi	r16, 0x41	; 65
    21a8:	11 05       	cpc	r17, r1
    21aa:	f1 f0       	breq	.+60     	; 0x21e8 <main+0x1ea>
    21ac:	0d 33       	cpi	r16, 0x3D	; 61
    21ae:	11 05       	cpc	r17, r1
    21b0:	d9 f0       	breq	.+54     	; 0x21e8 <main+0x1ea>
    21b2:	0e 94 d4 03 	call	0x7a8	; 0x7a8 <LCD_vSendChar>
    21b6:	e7 2d       	mov	r30, r7
    21b8:	ff 27       	eor	r31, r31
    21ba:	e7 fd       	sbrc	r30, 7
    21bc:	f0 95       	com	r31
    21be:	81 e0       	ldi	r24, 0x01	; 1
    21c0:	90 e0       	ldi	r25, 0x00	; 0
    21c2:	8c 0f       	add	r24, r28
    21c4:	9d 1f       	adc	r25, r29
    21c6:	e8 0f       	add	r30, r24
    21c8:	f9 1f       	adc	r31, r25
    21ca:	86 2d       	mov	r24, r6
    21cc:	80 53       	subi	r24, 0x30	; 48
    21ce:	80 83       	st	Z, r24
    21d0:	7a 94       	dec	r7
    21d2:	68 01       	movw	r12, r16
    21d4:	9d e3       	ldi	r25, 0x3D	; 61
    21d6:	c9 16       	cp	r12, r25
    21d8:	d1 04       	cpc	r13, r1
    21da:	31 f0       	breq	.+12     	; 0x21e8 <main+0x1ea>
    21dc:	a1 e4       	ldi	r26, 0x41	; 65
    21de:	ca 16       	cp	r12, r26
    21e0:	d1 04       	cpc	r13, r1
    21e2:	11 f0       	breq	.+4      	; 0x21e8 <main+0x1ea>
    21e4:	77 fe       	sbrs	r7, 7
    21e6:	c2 cf       	rjmp	.-124    	; 0x216c <main+0x16e>
    21e8:	0d 81       	ldd	r16, Y+5	; 0x05
    21ea:	1c 81       	ldd	r17, Y+4	; 0x04
    21ec:	7a 80       	ldd	r7, Y+2	; 0x02
    21ee:	6b 80       	ldd	r6, Y+3	; 0x03
    21f0:	59 80       	ldd	r5, Y+1	; 0x01
    21f2:	05 c0       	rjmp	.+10     	; 0x21fe <main+0x200>
    21f4:	84 e4       	ldi	r24, 0x44	; 68
    21f6:	0e 94 e4 02 	call	0x5c8	; 0x5c8 <KEYPAD_u8Read>
    21fa:	c8 2e       	mov	r12, r24
    21fc:	dd 24       	eor	r13, r13
    21fe:	bd e3       	ldi	r27, 0x3D	; 61
    2200:	cb 16       	cp	r12, r27
    2202:	d1 04       	cpc	r13, r1
    2204:	29 f0       	breq	.+10     	; 0x2210 <main+0x212>
    2206:	e1 e4       	ldi	r30, 0x41	; 65
    2208:	ce 16       	cp	r12, r30
    220a:	d1 04       	cpc	r13, r1
    220c:	99 f7       	brne	.-26     	; 0x21f4 <main+0x1f6>
    220e:	a8 c6       	rjmp	.+3408   	; 0x2f60 <main+0xf62>
    2210:	81 14       	cp	r8, r1
    2212:	91 04       	cpc	r9, r1
    2214:	a1 04       	cpc	r10, r1
    2216:	b1 04       	cpc	r11, r1
    2218:	c1 f1       	breq	.+112    	; 0x228a <main+0x28c>
    221a:	80 2f       	mov	r24, r16
    221c:	90 e0       	ldi	r25, 0x00	; 0
    221e:	20 e1       	ldi	r18, 0x10	; 16
    2220:	37 e2       	ldi	r19, 0x27	; 39
    2222:	82 9f       	mul	r24, r18
    2224:	60 01       	movw	r12, r0
    2226:	83 9f       	mul	r24, r19
    2228:	d0 0c       	add	r13, r0
    222a:	92 9f       	mul	r25, r18
    222c:	d0 0c       	add	r13, r0
    222e:	11 24       	eor	r1, r1
    2230:	21 2f       	mov	r18, r17
    2232:	30 e0       	ldi	r19, 0x00	; 0
    2234:	48 ee       	ldi	r20, 0xE8	; 232
    2236:	53 e0       	ldi	r21, 0x03	; 3
    2238:	24 9f       	mul	r18, r20
    223a:	c0 01       	movw	r24, r0
    223c:	25 9f       	mul	r18, r21
    223e:	90 0d       	add	r25, r0
    2240:	34 9f       	mul	r19, r20
    2242:	90 0d       	add	r25, r0
    2244:	11 24       	eor	r1, r1
    2246:	c8 0e       	add	r12, r24
    2248:	d9 1e       	adc	r13, r25
    224a:	27 2d       	mov	r18, r7
    224c:	30 e0       	ldi	r19, 0x00	; 0
    224e:	c9 01       	movw	r24, r18
    2250:	88 0f       	add	r24, r24
    2252:	99 1f       	adc	r25, r25
    2254:	13 e0       	ldi	r17, 0x03	; 3
    2256:	22 0f       	add	r18, r18
    2258:	33 1f       	adc	r19, r19
    225a:	1a 95       	dec	r17
    225c:	e1 f7       	brne	.-8      	; 0x2256 <main+0x258>
    225e:	82 0f       	add	r24, r18
    2260:	93 1f       	adc	r25, r19
    2262:	56 2d       	mov	r21, r6
    2264:	64 e6       	ldi	r22, 0x64	; 100
    2266:	56 9f       	mul	r21, r22
    2268:	90 01       	movw	r18, r0
    226a:	11 24       	eor	r1, r1
    226c:	82 0f       	add	r24, r18
    226e:	93 1f       	adc	r25, r19
    2270:	c8 0e       	add	r12, r24
    2272:	d9 1e       	adc	r13, r25
    2274:	c5 0c       	add	r12, r5
    2276:	d1 1c       	adc	r13, r1
    2278:	ee 24       	eor	r14, r14
    227a:	d7 fc       	sbrc	r13, 7
    227c:	e0 94       	com	r14
    227e:	fe 2c       	mov	r15, r14
    2280:	c1 14       	cp	r12, r1
    2282:	d1 04       	cpc	r13, r1
    2284:	e1 04       	cpc	r14, r1
    2286:	f1 04       	cpc	r15, r1
    2288:	81 f4       	brne	.+32     	; 0x22aa <main+0x2ac>
    228a:	0e 94 f7 03 	call	0x7ee	; 0x7ee <LCD_vClearScreen>
    228e:	80 e6       	ldi	r24, 0x60	; 96
    2290:	90 e0       	ldi	r25, 0x00	; 0
    2292:	0e 94 eb 03 	call	0x7d6	; 0x7d6 <LCD_vSendString>
    2296:	8f e7       	ldi	r24, 0x7F	; 127
    2298:	99 ea       	ldi	r25, 0xA9	; 169
    229a:	a3 e0       	ldi	r26, 0x03	; 3
    229c:	81 50       	subi	r24, 0x01	; 1
    229e:	90 40       	sbci	r25, 0x00	; 0
    22a0:	a0 40       	sbci	r26, 0x00	; 0
    22a2:	e1 f7       	brne	.-8      	; 0x229c <main+0x29e>
    22a4:	00 c0       	rjmp	.+0      	; 0x22a6 <main+0x2a8>
    22a6:	00 00       	nop
    22a8:	5b c6       	rjmp	.+3254   	; 0x2f60 <main+0xf62>
    22aa:	8d e3       	ldi	r24, 0x3D	; 61
    22ac:	0e 94 d4 03 	call	0x7a8	; 0x7a8 <LCD_vSendChar>
    22b0:	98 89       	ldd	r25, Y+16	; 0x10
    22b2:	9b 32       	cpi	r25, 0x2B	; 43
    22b4:	59 f0       	breq	.+22     	; 0x22cc <main+0x2ce>
    22b6:	9c 32       	cpi	r25, 0x2C	; 44
    22b8:	18 f4       	brcc	.+6      	; 0x22c0 <main+0x2c2>
    22ba:	9a 32       	cpi	r25, 0x2A	; 42
    22bc:	e1 f5       	brne	.+120    	; 0x2336 <main+0x338>
    22be:	12 c0       	rjmp	.+36     	; 0x22e4 <main+0x2e6>
    22c0:	a8 89       	ldd	r26, Y+16	; 0x10
    22c2:	ad 32       	cpi	r26, 0x2D	; 45
    22c4:	41 f0       	breq	.+16     	; 0x22d6 <main+0x2d8>
    22c6:	af 32       	cpi	r26, 0x2F	; 47
    22c8:	b1 f5       	brne	.+108    	; 0x2336 <main+0x338>
    22ca:	22 c0       	rjmp	.+68     	; 0x2310 <main+0x312>
    22cc:	c8 0c       	add	r12, r8
    22ce:	d9 1c       	adc	r13, r9
    22d0:	ea 1c       	adc	r14, r10
    22d2:	fb 1c       	adc	r15, r11
    22d4:	0f c0       	rjmp	.+30     	; 0x22f4 <main+0x2f6>
    22d6:	8c 18       	sub	r8, r12
    22d8:	9d 08       	sbc	r9, r13
    22da:	ae 08       	sbc	r10, r14
    22dc:	bf 08       	sbc	r11, r15
    22de:	b5 01       	movw	r22, r10
    22e0:	a4 01       	movw	r20, r8
    22e2:	1e c0       	rjmp	.+60     	; 0x2320 <main+0x322>
    22e4:	c5 01       	movw	r24, r10
    22e6:	b4 01       	movw	r22, r8
    22e8:	a7 01       	movw	r20, r14
    22ea:	96 01       	movw	r18, r12
    22ec:	0e 94 b3 17 	call	0x2f66	; 0x2f66 <__mulsi3>
    22f0:	6b 01       	movw	r12, r22
    22f2:	7c 01       	movw	r14, r24
    22f4:	a7 01       	movw	r20, r14
    22f6:	96 01       	movw	r18, r12
    22f8:	60 e0       	ldi	r22, 0x00	; 0
    22fa:	70 e0       	ldi	r23, 0x00	; 0
    22fc:	cb 01       	movw	r24, r22
    22fe:	c8 86       	std	Y+8, r12	; 0x08
    2300:	39 87       	std	Y+9, r19	; 0x09
    2302:	4a 87       	std	Y+10, r20	; 0x0a
    2304:	5b 87       	std	Y+11, r21	; 0x0b
    2306:	6c 87       	std	Y+12, r22	; 0x0c
    2308:	7d 87       	std	Y+13, r23	; 0x0d
    230a:	8e 87       	std	Y+14, r24	; 0x0e
    230c:	9f 87       	std	Y+15, r25	; 0x0f
    230e:	13 c0       	rjmp	.+38     	; 0x2336 <main+0x338>
    2310:	c5 01       	movw	r24, r10
    2312:	b4 01       	movw	r22, r8
    2314:	a7 01       	movw	r20, r14
    2316:	96 01       	movw	r18, r12
    2318:	0e 94 d2 17 	call	0x2fa4	; 0x2fa4 <__udivmodsi4>
    231c:	ba 01       	movw	r22, r20
    231e:	a9 01       	movw	r20, r18
    2320:	80 e0       	ldi	r24, 0x00	; 0
    2322:	90 e0       	ldi	r25, 0x00	; 0
    2324:	dc 01       	movw	r26, r24
    2326:	48 87       	std	Y+8, r20	; 0x08
    2328:	59 87       	std	Y+9, r21	; 0x09
    232a:	6a 87       	std	Y+10, r22	; 0x0a
    232c:	7b 87       	std	Y+11, r23	; 0x0b
    232e:	8c 87       	std	Y+12, r24	; 0x0c
    2330:	9d 87       	std	Y+13, r25	; 0x0d
    2332:	ae 87       	std	Y+14, r26	; 0x0e
    2334:	bf 87       	std	Y+15, r27	; 0x0f
    2336:	f8 85       	ldd	r31, Y+8	; 0x08
    2338:	29 85       	ldd	r18, Y+9	; 0x09
    233a:	2a 5c       	subi	r18, 0xCA	; 202
    233c:	31 e0       	ldi	r19, 0x01	; 1
    233e:	59 85       	ldd	r21, Y+9	; 0x09
    2340:	25 17       	cp	r18, r21
    2342:	08 f0       	brcs	.+2      	; 0x2346 <main+0x348>
    2344:	30 e0       	ldi	r19, 0x00	; 0
    2346:	8a 85       	ldd	r24, Y+10	; 0x0a
    2348:	8b 59       	subi	r24, 0x9B	; 155
    234a:	91 e0       	ldi	r25, 0x01	; 1
    234c:	6a 85       	ldd	r22, Y+10	; 0x0a
    234e:	86 17       	cp	r24, r22
    2350:	08 f0       	brcs	.+2      	; 0x2354 <main+0x356>
    2352:	90 e0       	ldi	r25, 0x00	; 0
    2354:	38 0f       	add	r19, r24
    2356:	41 e0       	ldi	r20, 0x01	; 1
    2358:	38 17       	cp	r19, r24
    235a:	08 f0       	brcs	.+2      	; 0x235e <main+0x360>
    235c:	40 e0       	ldi	r20, 0x00	; 0
    235e:	94 2b       	or	r25, r20
    2360:	5b 85       	ldd	r21, Y+11	; 0x0b
    2362:	5c 53       	subi	r21, 0x3C	; 60
    2364:	81 e0       	ldi	r24, 0x01	; 1
    2366:	7b 85       	ldd	r23, Y+11	; 0x0b
    2368:	57 17       	cp	r21, r23
    236a:	08 f0       	brcs	.+2      	; 0x236e <main+0x370>
    236c:	80 e0       	ldi	r24, 0x00	; 0
    236e:	49 2f       	mov	r20, r25
    2370:	45 0f       	add	r20, r21
    2372:	91 e0       	ldi	r25, 0x01	; 1
    2374:	45 17       	cp	r20, r21
    2376:	08 f0       	brcs	.+2      	; 0x237a <main+0x37c>
    2378:	90 e0       	ldi	r25, 0x00	; 0
    237a:	89 2b       	or	r24, r25
    237c:	6c 85       	ldd	r22, Y+12	; 0x0c
    237e:	61 50       	subi	r22, 0x01	; 1
    2380:	91 e0       	ldi	r25, 0x01	; 1
    2382:	ac 85       	ldd	r26, Y+12	; 0x0c
    2384:	6a 17       	cp	r22, r26
    2386:	08 f0       	brcs	.+2      	; 0x238a <main+0x38c>
    2388:	90 e0       	ldi	r25, 0x00	; 0
    238a:	58 2f       	mov	r21, r24
    238c:	56 0f       	add	r21, r22
    238e:	81 e0       	ldi	r24, 0x01	; 1
    2390:	56 17       	cp	r21, r22
    2392:	08 f0       	brcs	.+2      	; 0x2396 <main+0x398>
    2394:	80 e0       	ldi	r24, 0x00	; 0
    2396:	98 2b       	or	r25, r24
    2398:	6d 85       	ldd	r22, Y+13	; 0x0d
    239a:	61 50       	subi	r22, 0x01	; 1
    239c:	81 e0       	ldi	r24, 0x01	; 1
    239e:	bd 85       	ldd	r27, Y+13	; 0x0d
    23a0:	6b 17       	cp	r22, r27
    23a2:	08 f0       	brcs	.+2      	; 0x23a6 <main+0x3a8>
    23a4:	80 e0       	ldi	r24, 0x00	; 0
    23a6:	96 0f       	add	r25, r22
    23a8:	71 e0       	ldi	r23, 0x01	; 1
    23aa:	96 17       	cp	r25, r22
    23ac:	08 f0       	brcs	.+2      	; 0x23b0 <main+0x3b2>
    23ae:	70 e0       	ldi	r23, 0x00	; 0
    23b0:	87 2b       	or	r24, r23
    23b2:	7e 85       	ldd	r23, Y+14	; 0x0e
    23b4:	71 50       	subi	r23, 0x01	; 1
    23b6:	e1 e0       	ldi	r30, 0x01	; 1
    23b8:	6e 85       	ldd	r22, Y+14	; 0x0e
    23ba:	76 17       	cp	r23, r22
    23bc:	08 f0       	brcs	.+2      	; 0x23c0 <main+0x3c2>
    23be:	e0 e0       	ldi	r30, 0x00	; 0
    23c0:	87 0f       	add	r24, r23
    23c2:	61 e0       	ldi	r22, 0x01	; 1
    23c4:	87 17       	cp	r24, r23
    23c6:	08 f0       	brcs	.+2      	; 0x23ca <main+0x3cc>
    23c8:	60 e0       	ldi	r22, 0x00	; 0
    23ca:	6e 2b       	or	r22, r30
    23cc:	7f 85       	ldd	r23, Y+15	; 0x0f
    23ce:	71 50       	subi	r23, 0x01	; 1
    23d0:	67 0f       	add	r22, r23
    23d2:	09 f0       	breq	.+2      	; 0x23d6 <main+0x3d8>
    23d4:	5d c0       	rjmp	.+186    	; 0x2490 <main+0x492>
    23d6:	88 23       	and	r24, r24
    23d8:	09 f0       	breq	.+2      	; 0x23dc <main+0x3de>
    23da:	5a c0       	rjmp	.+180    	; 0x2490 <main+0x492>
    23dc:	99 23       	and	r25, r25
    23de:	09 f0       	breq	.+2      	; 0x23e2 <main+0x3e4>
    23e0:	57 c0       	rjmp	.+174    	; 0x2490 <main+0x492>
    23e2:	53 30       	cpi	r21, 0x03	; 3
    23e4:	08 f0       	brcs	.+2      	; 0x23e8 <main+0x3ea>
    23e6:	54 c0       	rjmp	.+168    	; 0x2490 <main+0x492>
    23e8:	52 30       	cpi	r21, 0x02	; 2
    23ea:	91 f4       	brne	.+36     	; 0x2410 <main+0x412>
    23ec:	49 31       	cpi	r20, 0x19	; 25
    23ee:	08 f0       	brcs	.+2      	; 0x23f2 <main+0x3f4>
    23f0:	4f c0       	rjmp	.+158    	; 0x2490 <main+0x492>
    23f2:	48 31       	cpi	r20, 0x18	; 24
    23f4:	69 f4       	brne	.+26     	; 0x2410 <main+0x412>
    23f6:	32 37       	cpi	r19, 0x72	; 114
    23f8:	08 f0       	brcs	.+2      	; 0x23fc <main+0x3fe>
    23fa:	4a c0       	rjmp	.+148    	; 0x2490 <main+0x492>
    23fc:	31 37       	cpi	r19, 0x71	; 113
    23fe:	41 f4       	brne	.+16     	; 0x2410 <main+0x412>
    2400:	2b 31       	cpi	r18, 0x1B	; 27
    2402:	08 f0       	brcs	.+2      	; 0x2406 <main+0x408>
    2404:	45 c0       	rjmp	.+138    	; 0x2490 <main+0x492>
    2406:	2a 31       	cpi	r18, 0x1A	; 26
    2408:	19 f4       	brne	.+6      	; 0x2410 <main+0x412>
    240a:	ff 23       	and	r31, r31
    240c:	09 f0       	breq	.+2      	; 0x2410 <main+0x412>
    240e:	40 c0       	rjmp	.+128    	; 0x2490 <main+0x492>
    2410:	28 85       	ldd	r18, Y+8	; 0x08
    2412:	39 85       	ldd	r19, Y+9	; 0x09
    2414:	4a 85       	ldd	r20, Y+10	; 0x0a
    2416:	5b 85       	ldd	r21, Y+11	; 0x0b
    2418:	6c 85       	ldd	r22, Y+12	; 0x0c
    241a:	7d 85       	ldd	r23, Y+13	; 0x0d
    241c:	8e 85       	ldd	r24, Y+14	; 0x0e
    241e:	9f 85       	ldd	r25, Y+15	; 0x0f
    2420:	aa 24       	eor	r10, r10
    2422:	fa ec       	ldi	r31, 0xCA	; 202
    2424:	bf 2e       	mov	r11, r31
    2426:	aa e9       	ldi	r26, 0x9A	; 154
    2428:	ca 2e       	mov	r12, r26
    242a:	bb e3       	ldi	r27, 0x3B	; 59
    242c:	db 2e       	mov	r13, r27
    242e:	ee 24       	eor	r14, r14
    2430:	ff 24       	eor	r15, r15
    2432:	00 e0       	ldi	r16, 0x00	; 0
    2434:	10 e0       	ldi	r17, 0x00	; 0
    2436:	0e 94 1c 04 	call	0x838	; 0x838 <__udivdi3>
    243a:	82 2f       	mov	r24, r18
    243c:	80 5d       	subi	r24, 0xD0	; 208
    243e:	0e 94 d4 03 	call	0x7a8	; 0x7a8 <LCD_vSendChar>
    2442:	28 85       	ldd	r18, Y+8	; 0x08
    2444:	39 85       	ldd	r19, Y+9	; 0x09
    2446:	4a 85       	ldd	r20, Y+10	; 0x0a
    2448:	5b 85       	ldd	r21, Y+11	; 0x0b
    244a:	6c 85       	ldd	r22, Y+12	; 0x0c
    244c:	7d 85       	ldd	r23, Y+13	; 0x0d
    244e:	8e 85       	ldd	r24, Y+14	; 0x0e
    2450:	9f 85       	ldd	r25, Y+15	; 0x0f
    2452:	0e 94 61 0a 	call	0x14c2	; 0x14c2 <__umoddi3>
    2456:	92 2e       	mov	r9, r18
    2458:	83 2e       	mov	r8, r19
    245a:	74 2e       	mov	r7, r20
    245c:	65 2e       	mov	r6, r21
    245e:	56 2e       	mov	r5, r22
    2460:	47 2e       	mov	r4, r23
    2462:	38 2e       	mov	r3, r24
    2464:	29 2e       	mov	r2, r25
    2466:	e1 ee       	ldi	r30, 0xE1	; 225
    2468:	be 2e       	mov	r11, r30
    246a:	f5 ef       	ldi	r31, 0xF5	; 245
    246c:	cf 2e       	mov	r12, r31
    246e:	a5 e0       	ldi	r26, 0x05	; 5
    2470:	da 2e       	mov	r13, r26
    2472:	0e 94 1c 04 	call	0x838	; 0x838 <__udivdi3>
    2476:	82 2f       	mov	r24, r18
    2478:	80 5d       	subi	r24, 0xD0	; 208
    247a:	0e 94 d4 03 	call	0x7a8	; 0x7a8 <LCD_vSendChar>
    247e:	29 2d       	mov	r18, r9
    2480:	38 2d       	mov	r19, r8
    2482:	47 2d       	mov	r20, r7
    2484:	56 2d       	mov	r21, r6
    2486:	65 2d       	mov	r22, r5
    2488:	74 2d       	mov	r23, r4
    248a:	83 2d       	mov	r24, r3
    248c:	92 2d       	mov	r25, r2
    248e:	8c c0       	rjmp	.+280    	; 0x25a8 <main+0x5aa>
    2490:	f8 85       	ldd	r31, Y+8	; 0x08
    2492:	29 85       	ldd	r18, Y+9	; 0x09
    2494:	21 5e       	subi	r18, 0xE1	; 225
    2496:	31 e0       	ldi	r19, 0x01	; 1
    2498:	79 85       	ldd	r23, Y+9	; 0x09
    249a:	27 17       	cp	r18, r23
    249c:	08 f0       	brcs	.+2      	; 0x24a0 <main+0x4a2>
    249e:	30 e0       	ldi	r19, 0x00	; 0
    24a0:	8a 85       	ldd	r24, Y+10	; 0x0a
    24a2:	86 5f       	subi	r24, 0xF6	; 246
    24a4:	91 e0       	ldi	r25, 0x01	; 1
    24a6:	aa 85       	ldd	r26, Y+10	; 0x0a
    24a8:	8a 17       	cp	r24, r26
    24aa:	08 f0       	brcs	.+2      	; 0x24ae <main+0x4b0>
    24ac:	90 e0       	ldi	r25, 0x00	; 0
    24ae:	38 0f       	add	r19, r24
    24b0:	41 e0       	ldi	r20, 0x01	; 1
    24b2:	38 17       	cp	r19, r24
    24b4:	08 f0       	brcs	.+2      	; 0x24b8 <main+0x4ba>
    24b6:	40 e0       	ldi	r20, 0x00	; 0
    24b8:	94 2b       	or	r25, r20
    24ba:	5b 85       	ldd	r21, Y+11	; 0x0b
    24bc:	56 50       	subi	r21, 0x06	; 6
    24be:	81 e0       	ldi	r24, 0x01	; 1
    24c0:	bb 85       	ldd	r27, Y+11	; 0x0b
    24c2:	5b 17       	cp	r21, r27
    24c4:	08 f0       	brcs	.+2      	; 0x24c8 <main+0x4ca>
    24c6:	80 e0       	ldi	r24, 0x00	; 0
    24c8:	49 2f       	mov	r20, r25
    24ca:	45 0f       	add	r20, r21
    24cc:	91 e0       	ldi	r25, 0x01	; 1
    24ce:	45 17       	cp	r20, r21
    24d0:	08 f0       	brcs	.+2      	; 0x24d4 <main+0x4d6>
    24d2:	90 e0       	ldi	r25, 0x00	; 0
    24d4:	89 2b       	or	r24, r25
    24d6:	5c 85       	ldd	r21, Y+12	; 0x0c
    24d8:	51 50       	subi	r21, 0x01	; 1
    24da:	91 e0       	ldi	r25, 0x01	; 1
    24dc:	ec 85       	ldd	r30, Y+12	; 0x0c
    24de:	5e 17       	cp	r21, r30
    24e0:	08 f0       	brcs	.+2      	; 0x24e4 <main+0x4e6>
    24e2:	90 e0       	ldi	r25, 0x00	; 0
    24e4:	78 2f       	mov	r23, r24
    24e6:	75 0f       	add	r23, r21
    24e8:	81 e0       	ldi	r24, 0x01	; 1
    24ea:	75 17       	cp	r23, r21
    24ec:	08 f0       	brcs	.+2      	; 0x24f0 <main+0x4f2>
    24ee:	80 e0       	ldi	r24, 0x00	; 0
    24f0:	98 2b       	or	r25, r24
    24f2:	5d 85       	ldd	r21, Y+13	; 0x0d
    24f4:	51 50       	subi	r21, 0x01	; 1
    24f6:	81 e0       	ldi	r24, 0x01	; 1
    24f8:	6d 85       	ldd	r22, Y+13	; 0x0d
    24fa:	56 17       	cp	r21, r22
    24fc:	08 f0       	brcs	.+2      	; 0x2500 <main+0x502>
    24fe:	80 e0       	ldi	r24, 0x00	; 0
    2500:	95 0f       	add	r25, r21
    2502:	61 e0       	ldi	r22, 0x01	; 1
    2504:	95 17       	cp	r25, r21
    2506:	08 f0       	brcs	.+2      	; 0x250a <main+0x50c>
    2508:	60 e0       	ldi	r22, 0x00	; 0
    250a:	86 2b       	or	r24, r22
    250c:	6e 85       	ldd	r22, Y+14	; 0x0e
    250e:	61 50       	subi	r22, 0x01	; 1
    2510:	e1 e0       	ldi	r30, 0x01	; 1
    2512:	ae 85       	ldd	r26, Y+14	; 0x0e
    2514:	6a 17       	cp	r22, r26
    2516:	08 f0       	brcs	.+2      	; 0x251a <main+0x51c>
    2518:	e0 e0       	ldi	r30, 0x00	; 0
    251a:	86 0f       	add	r24, r22
    251c:	51 e0       	ldi	r21, 0x01	; 1
    251e:	86 17       	cp	r24, r22
    2520:	08 f0       	brcs	.+2      	; 0x2524 <main+0x526>
    2522:	50 e0       	ldi	r21, 0x00	; 0
    2524:	5e 2b       	or	r21, r30
    2526:	6f 85       	ldd	r22, Y+15	; 0x0f
    2528:	61 50       	subi	r22, 0x01	; 1
    252a:	56 0f       	add	r21, r22
    252c:	09 f0       	breq	.+2      	; 0x2530 <main+0x532>
    252e:	ec c0       	rjmp	.+472    	; 0x2708 <main+0x70a>
    2530:	88 23       	and	r24, r24
    2532:	09 f0       	breq	.+2      	; 0x2536 <main+0x538>
    2534:	e9 c0       	rjmp	.+466    	; 0x2708 <main+0x70a>
    2536:	99 23       	and	r25, r25
    2538:	09 f0       	breq	.+2      	; 0x253c <main+0x53e>
    253a:	e6 c0       	rjmp	.+460    	; 0x2708 <main+0x70a>
    253c:	77 23       	and	r23, r23
    253e:	09 f0       	breq	.+2      	; 0x2542 <main+0x544>
    2540:	e3 c0       	rjmp	.+454    	; 0x2708 <main+0x70a>
    2542:	46 33       	cpi	r20, 0x36	; 54
    2544:	08 f0       	brcs	.+2      	; 0x2548 <main+0x54a>
    2546:	e0 c0       	rjmp	.+448    	; 0x2708 <main+0x70a>
    2548:	45 33       	cpi	r20, 0x35	; 53
    254a:	69 f4       	brne	.+26     	; 0x2566 <main+0x568>
    254c:	35 3a       	cpi	r19, 0xA5	; 165
    254e:	08 f0       	brcs	.+2      	; 0x2552 <main+0x554>
    2550:	db c0       	rjmp	.+438    	; 0x2708 <main+0x70a>
    2552:	34 3a       	cpi	r19, 0xA4	; 164
    2554:	41 f4       	brne	.+16     	; 0x2566 <main+0x568>
    2556:	2a 3e       	cpi	r18, 0xEA	; 234
    2558:	08 f0       	brcs	.+2      	; 0x255c <main+0x55e>
    255a:	d6 c0       	rjmp	.+428    	; 0x2708 <main+0x70a>
    255c:	29 3e       	cpi	r18, 0xE9	; 233
    255e:	19 f4       	brne	.+6      	; 0x2566 <main+0x568>
    2560:	ff 23       	and	r31, r31
    2562:	09 f0       	breq	.+2      	; 0x2566 <main+0x568>
    2564:	d1 c0       	rjmp	.+418    	; 0x2708 <main+0x70a>
    2566:	28 85       	ldd	r18, Y+8	; 0x08
    2568:	39 85       	ldd	r19, Y+9	; 0x09
    256a:	4a 85       	ldd	r20, Y+10	; 0x0a
    256c:	5b 85       	ldd	r21, Y+11	; 0x0b
    256e:	6c 85       	ldd	r22, Y+12	; 0x0c
    2570:	7d 85       	ldd	r23, Y+13	; 0x0d
    2572:	8e 85       	ldd	r24, Y+14	; 0x0e
    2574:	9f 85       	ldd	r25, Y+15	; 0x0f
    2576:	aa 24       	eor	r10, r10
    2578:	11 ee       	ldi	r17, 0xE1	; 225
    257a:	b1 2e       	mov	r11, r17
    257c:	05 ef       	ldi	r16, 0xF5	; 245
    257e:	c0 2e       	mov	r12, r16
    2580:	e5 e0       	ldi	r30, 0x05	; 5
    2582:	de 2e       	mov	r13, r30
    2584:	ee 24       	eor	r14, r14
    2586:	ff 24       	eor	r15, r15
    2588:	00 e0       	ldi	r16, 0x00	; 0
    258a:	10 e0       	ldi	r17, 0x00	; 0
    258c:	0e 94 1c 04 	call	0x838	; 0x838 <__udivdi3>
    2590:	82 2f       	mov	r24, r18
    2592:	80 5d       	subi	r24, 0xD0	; 208
    2594:	0e 94 d4 03 	call	0x7a8	; 0x7a8 <LCD_vSendChar>
    2598:	28 85       	ldd	r18, Y+8	; 0x08
    259a:	39 85       	ldd	r19, Y+9	; 0x09
    259c:	4a 85       	ldd	r20, Y+10	; 0x0a
    259e:	5b 85       	ldd	r21, Y+11	; 0x0b
    25a0:	6c 85       	ldd	r22, Y+12	; 0x0c
    25a2:	7d 85       	ldd	r23, Y+13	; 0x0d
    25a4:	8e 85       	ldd	r24, Y+14	; 0x0e
    25a6:	9f 85       	ldd	r25, Y+15	; 0x0f
    25a8:	0e 94 61 0a 	call	0x14c2	; 0x14c2 <__umoddi3>
    25ac:	92 2e       	mov	r9, r18
    25ae:	83 2e       	mov	r8, r19
    25b0:	74 2e       	mov	r7, r20
    25b2:	65 2e       	mov	r6, r21
    25b4:	56 2e       	mov	r5, r22
    25b6:	47 2e       	mov	r4, r23
    25b8:	38 2e       	mov	r3, r24
    25ba:	29 2e       	mov	r2, r25
    25bc:	f0 e8       	ldi	r31, 0x80	; 128
    25be:	af 2e       	mov	r10, r31
    25c0:	a6 e9       	ldi	r26, 0x96	; 150
    25c2:	ba 2e       	mov	r11, r26
    25c4:	b8 e9       	ldi	r27, 0x98	; 152
    25c6:	cb 2e       	mov	r12, r27
    25c8:	dd 24       	eor	r13, r13
    25ca:	0e 94 1c 04 	call	0x838	; 0x838 <__udivdi3>
    25ce:	82 2f       	mov	r24, r18
    25d0:	80 5d       	subi	r24, 0xD0	; 208
    25d2:	0e 94 d4 03 	call	0x7a8	; 0x7a8 <LCD_vSendChar>
    25d6:	29 2d       	mov	r18, r9
    25d8:	38 2d       	mov	r19, r8
    25da:	47 2d       	mov	r20, r7
    25dc:	56 2d       	mov	r21, r6
    25de:	65 2d       	mov	r22, r5
    25e0:	74 2d       	mov	r23, r4
    25e2:	83 2d       	mov	r24, r3
    25e4:	92 2d       	mov	r25, r2
    25e6:	0e 94 61 0a 	call	0x14c2	; 0x14c2 <__umoddi3>
    25ea:	92 2e       	mov	r9, r18
    25ec:	83 2e       	mov	r8, r19
    25ee:	74 2e       	mov	r7, r20
    25f0:	65 2e       	mov	r6, r21
    25f2:	56 2e       	mov	r5, r22
    25f4:	47 2e       	mov	r4, r23
    25f6:	38 2e       	mov	r3, r24
    25f8:	29 2e       	mov	r2, r25
    25fa:	a0 e4       	ldi	r26, 0x40	; 64
    25fc:	aa 2e       	mov	r10, r26
    25fe:	b2 e4       	ldi	r27, 0x42	; 66
    2600:	bb 2e       	mov	r11, r27
    2602:	ef e0       	ldi	r30, 0x0F	; 15
    2604:	ce 2e       	mov	r12, r30
    2606:	0e 94 1c 04 	call	0x838	; 0x838 <__udivdi3>
    260a:	82 2f       	mov	r24, r18
    260c:	80 5d       	subi	r24, 0xD0	; 208
    260e:	0e 94 d4 03 	call	0x7a8	; 0x7a8 <LCD_vSendChar>
    2612:	29 2d       	mov	r18, r9
    2614:	38 2d       	mov	r19, r8
    2616:	47 2d       	mov	r20, r7
    2618:	56 2d       	mov	r21, r6
    261a:	65 2d       	mov	r22, r5
    261c:	74 2d       	mov	r23, r4
    261e:	83 2d       	mov	r24, r3
    2620:	92 2d       	mov	r25, r2
    2622:	0e 94 61 0a 	call	0x14c2	; 0x14c2 <__umoddi3>
    2626:	92 2e       	mov	r9, r18
    2628:	83 2e       	mov	r8, r19
    262a:	74 2e       	mov	r7, r20
    262c:	65 2e       	mov	r6, r21
    262e:	56 2e       	mov	r5, r22
    2630:	47 2e       	mov	r4, r23
    2632:	38 2e       	mov	r3, r24
    2634:	29 2e       	mov	r2, r25
    2636:	e0 ea       	ldi	r30, 0xA0	; 160
    2638:	ae 2e       	mov	r10, r30
    263a:	f6 e8       	ldi	r31, 0x86	; 134
    263c:	bf 2e       	mov	r11, r31
    263e:	cc 24       	eor	r12, r12
    2640:	c3 94       	inc	r12
    2642:	0e 94 1c 04 	call	0x838	; 0x838 <__udivdi3>
    2646:	82 2f       	mov	r24, r18
    2648:	80 5d       	subi	r24, 0xD0	; 208
    264a:	0e 94 d4 03 	call	0x7a8	; 0x7a8 <LCD_vSendChar>
    264e:	29 2d       	mov	r18, r9
    2650:	38 2d       	mov	r19, r8
    2652:	47 2d       	mov	r20, r7
    2654:	56 2d       	mov	r21, r6
    2656:	65 2d       	mov	r22, r5
    2658:	74 2d       	mov	r23, r4
    265a:	83 2d       	mov	r24, r3
    265c:	92 2d       	mov	r25, r2
    265e:	0e 94 61 0a 	call	0x14c2	; 0x14c2 <__umoddi3>
    2662:	92 2e       	mov	r9, r18
    2664:	83 2e       	mov	r8, r19
    2666:	74 2e       	mov	r7, r20
    2668:	65 2e       	mov	r6, r21
    266a:	56 2e       	mov	r5, r22
    266c:	47 2e       	mov	r4, r23
    266e:	38 2e       	mov	r3, r24
    2670:	29 2e       	mov	r2, r25
    2672:	a0 e1       	ldi	r26, 0x10	; 16
    2674:	aa 2e       	mov	r10, r26
    2676:	b7 e2       	ldi	r27, 0x27	; 39
    2678:	bb 2e       	mov	r11, r27
    267a:	cc 24       	eor	r12, r12
    267c:	0e 94 1c 04 	call	0x838	; 0x838 <__udivdi3>
    2680:	82 2f       	mov	r24, r18
    2682:	80 5d       	subi	r24, 0xD0	; 208
    2684:	0e 94 d4 03 	call	0x7a8	; 0x7a8 <LCD_vSendChar>
    2688:	29 2d       	mov	r18, r9
    268a:	38 2d       	mov	r19, r8
    268c:	47 2d       	mov	r20, r7
    268e:	56 2d       	mov	r21, r6
    2690:	65 2d       	mov	r22, r5
    2692:	74 2d       	mov	r23, r4
    2694:	83 2d       	mov	r24, r3
    2696:	92 2d       	mov	r25, r2
    2698:	0e 94 61 0a 	call	0x14c2	; 0x14c2 <__umoddi3>
    269c:	92 2e       	mov	r9, r18
    269e:	83 2e       	mov	r8, r19
    26a0:	74 2e       	mov	r7, r20
    26a2:	65 2e       	mov	r6, r21
    26a4:	56 2e       	mov	r5, r22
    26a6:	47 2e       	mov	r4, r23
    26a8:	38 2e       	mov	r3, r24
    26aa:	29 2e       	mov	r2, r25
    26ac:	e8 ee       	ldi	r30, 0xE8	; 232
    26ae:	ae 2e       	mov	r10, r30
    26b0:	f3 e0       	ldi	r31, 0x03	; 3
    26b2:	bf 2e       	mov	r11, r31
    26b4:	0e 94 1c 04 	call	0x838	; 0x838 <__udivdi3>
    26b8:	82 2f       	mov	r24, r18
    26ba:	80 5d       	subi	r24, 0xD0	; 208
    26bc:	0e 94 d4 03 	call	0x7a8	; 0x7a8 <LCD_vSendChar>
    26c0:	29 2d       	mov	r18, r9
    26c2:	38 2d       	mov	r19, r8
    26c4:	47 2d       	mov	r20, r7
    26c6:	56 2d       	mov	r21, r6
    26c8:	65 2d       	mov	r22, r5
    26ca:	74 2d       	mov	r23, r4
    26cc:	83 2d       	mov	r24, r3
    26ce:	92 2d       	mov	r25, r2
    26d0:	0e 94 61 0a 	call	0x14c2	; 0x14c2 <__umoddi3>
    26d4:	92 2e       	mov	r9, r18
    26d6:	83 2e       	mov	r8, r19
    26d8:	74 2e       	mov	r7, r20
    26da:	65 2e       	mov	r6, r21
    26dc:	56 2e       	mov	r5, r22
    26de:	47 2e       	mov	r4, r23
    26e0:	38 2e       	mov	r3, r24
    26e2:	29 2e       	mov	r2, r25
    26e4:	b4 e6       	ldi	r27, 0x64	; 100
    26e6:	ab 2e       	mov	r10, r27
    26e8:	bb 24       	eor	r11, r11
    26ea:	0e 94 1c 04 	call	0x838	; 0x838 <__udivdi3>
    26ee:	82 2f       	mov	r24, r18
    26f0:	80 5d       	subi	r24, 0xD0	; 208
    26f2:	0e 94 d4 03 	call	0x7a8	; 0x7a8 <LCD_vSendChar>
    26f6:	29 2d       	mov	r18, r9
    26f8:	38 2d       	mov	r19, r8
    26fa:	47 2d       	mov	r20, r7
    26fc:	56 2d       	mov	r21, r6
    26fe:	65 2d       	mov	r22, r5
    2700:	74 2d       	mov	r23, r4
    2702:	83 2d       	mov	r24, r3
    2704:	92 2d       	mov	r25, r2
    2706:	5f c3       	rjmp	.+1726   	; 0x2dc6 <main+0xdc8>
    2708:	78 85       	ldd	r23, Y+8	; 0x08
    270a:	70 58       	subi	r23, 0x80	; 128
    270c:	21 e0       	ldi	r18, 0x01	; 1
    270e:	b8 85       	ldd	r27, Y+8	; 0x08
    2710:	7b 17       	cp	r23, r27
    2712:	08 f0       	brcs	.+2      	; 0x2716 <main+0x718>
    2714:	20 e0       	ldi	r18, 0x00	; 0
    2716:	99 85       	ldd	r25, Y+9	; 0x09
    2718:	97 59       	subi	r25, 0x97	; 151
    271a:	81 e0       	ldi	r24, 0x01	; 1
    271c:	e9 85       	ldd	r30, Y+9	; 0x09
    271e:	9e 17       	cp	r25, r30
    2720:	08 f0       	brcs	.+2      	; 0x2724 <main+0x726>
    2722:	80 e0       	ldi	r24, 0x00	; 0
    2724:	29 0f       	add	r18, r25
    2726:	31 e0       	ldi	r19, 0x01	; 1
    2728:	29 17       	cp	r18, r25
    272a:	08 f0       	brcs	.+2      	; 0x272e <main+0x730>
    272c:	30 e0       	ldi	r19, 0x00	; 0
    272e:	83 2b       	or	r24, r19
    2730:	4a 85       	ldd	r20, Y+10	; 0x0a
    2732:	49 59       	subi	r20, 0x99	; 153
    2734:	91 e0       	ldi	r25, 0x01	; 1
    2736:	fa 85       	ldd	r31, Y+10	; 0x0a
    2738:	4f 17       	cp	r20, r31
    273a:	08 f0       	brcs	.+2      	; 0x273e <main+0x740>
    273c:	90 e0       	ldi	r25, 0x00	; 0
    273e:	38 2f       	mov	r19, r24
    2740:	34 0f       	add	r19, r20
    2742:	81 e0       	ldi	r24, 0x01	; 1
    2744:	34 17       	cp	r19, r20
    2746:	08 f0       	brcs	.+2      	; 0x274a <main+0x74c>
    2748:	80 e0       	ldi	r24, 0x00	; 0
    274a:	98 2b       	or	r25, r24
    274c:	5b 85       	ldd	r21, Y+11	; 0x0b
    274e:	51 50       	subi	r21, 0x01	; 1
    2750:	81 e0       	ldi	r24, 0x01	; 1
    2752:	4b 85       	ldd	r20, Y+11	; 0x0b
    2754:	54 17       	cp	r21, r20
    2756:	08 f0       	brcs	.+2      	; 0x275a <main+0x75c>
    2758:	80 e0       	ldi	r24, 0x00	; 0
    275a:	49 2f       	mov	r20, r25
    275c:	45 0f       	add	r20, r21
    275e:	91 e0       	ldi	r25, 0x01	; 1
    2760:	45 17       	cp	r20, r21
    2762:	08 f0       	brcs	.+2      	; 0x2766 <main+0x768>
    2764:	90 e0       	ldi	r25, 0x00	; 0
    2766:	89 2b       	or	r24, r25
    2768:	5c 85       	ldd	r21, Y+12	; 0x0c
    276a:	51 50       	subi	r21, 0x01	; 1
    276c:	91 e0       	ldi	r25, 0x01	; 1
    276e:	6c 85       	ldd	r22, Y+12	; 0x0c
    2770:	56 17       	cp	r21, r22
    2772:	08 f0       	brcs	.+2      	; 0x2776 <main+0x778>
    2774:	90 e0       	ldi	r25, 0x00	; 0
    2776:	e8 2f       	mov	r30, r24
    2778:	e5 0f       	add	r30, r21
    277a:	81 e0       	ldi	r24, 0x01	; 1
    277c:	e5 17       	cp	r30, r21
    277e:	08 f0       	brcs	.+2      	; 0x2782 <main+0x784>
    2780:	80 e0       	ldi	r24, 0x00	; 0
    2782:	98 2b       	or	r25, r24
    2784:	5d 85       	ldd	r21, Y+13	; 0x0d
    2786:	51 50       	subi	r21, 0x01	; 1
    2788:	81 e0       	ldi	r24, 0x01	; 1
    278a:	ad 85       	ldd	r26, Y+13	; 0x0d
    278c:	5a 17       	cp	r21, r26
    278e:	08 f0       	brcs	.+2      	; 0x2792 <main+0x794>
    2790:	80 e0       	ldi	r24, 0x00	; 0
    2792:	95 0f       	add	r25, r21
    2794:	61 e0       	ldi	r22, 0x01	; 1
    2796:	95 17       	cp	r25, r21
    2798:	08 f0       	brcs	.+2      	; 0x279c <main+0x79e>
    279a:	60 e0       	ldi	r22, 0x00	; 0
    279c:	86 2b       	or	r24, r22
    279e:	6e 85       	ldd	r22, Y+14	; 0x0e
    27a0:	61 50       	subi	r22, 0x01	; 1
    27a2:	f1 e0       	ldi	r31, 0x01	; 1
    27a4:	be 85       	ldd	r27, Y+14	; 0x0e
    27a6:	6b 17       	cp	r22, r27
    27a8:	08 f0       	brcs	.+2      	; 0x27ac <main+0x7ae>
    27aa:	f0 e0       	ldi	r31, 0x00	; 0
    27ac:	86 0f       	add	r24, r22
    27ae:	51 e0       	ldi	r21, 0x01	; 1
    27b0:	86 17       	cp	r24, r22
    27b2:	08 f0       	brcs	.+2      	; 0x27b6 <main+0x7b8>
    27b4:	50 e0       	ldi	r21, 0x00	; 0
    27b6:	5f 2b       	or	r21, r31
    27b8:	6f 85       	ldd	r22, Y+15	; 0x0f
    27ba:	61 50       	subi	r22, 0x01	; 1
    27bc:	56 0f       	add	r21, r22
    27be:	b1 f5       	brne	.+108    	; 0x282c <main+0x82e>
    27c0:	88 23       	and	r24, r24
    27c2:	a1 f5       	brne	.+104    	; 0x282c <main+0x82e>
    27c4:	99 23       	and	r25, r25
    27c6:	91 f5       	brne	.+100    	; 0x282c <main+0x82e>
    27c8:	ee 23       	and	r30, r30
    27ca:	81 f5       	brne	.+96     	; 0x282c <main+0x82e>
    27cc:	46 30       	cpi	r20, 0x06	; 6
    27ce:	70 f5       	brcc	.+92     	; 0x282c <main+0x82e>
    27d0:	45 30       	cpi	r20, 0x05	; 5
    27d2:	51 f4       	brne	.+20     	; 0x27e8 <main+0x7ea>
    27d4:	3e 35       	cpi	r19, 0x5E	; 94
    27d6:	50 f5       	brcc	.+84     	; 0x282c <main+0x82e>
    27d8:	3d 35       	cpi	r19, 0x5D	; 93
    27da:	31 f4       	brne	.+12     	; 0x27e8 <main+0x7ea>
    27dc:	2b 34       	cpi	r18, 0x4B	; 75
    27de:	30 f5       	brcc	.+76     	; 0x282c <main+0x82e>
    27e0:	2a 34       	cpi	r18, 0x4A	; 74
    27e2:	11 f4       	brne	.+4      	; 0x27e8 <main+0x7ea>
    27e4:	71 38       	cpi	r23, 0x81	; 129
    27e6:	10 f5       	brcc	.+68     	; 0x282c <main+0x82e>
    27e8:	28 85       	ldd	r18, Y+8	; 0x08
    27ea:	39 85       	ldd	r19, Y+9	; 0x09
    27ec:	4a 85       	ldd	r20, Y+10	; 0x0a
    27ee:	5b 85       	ldd	r21, Y+11	; 0x0b
    27f0:	6c 85       	ldd	r22, Y+12	; 0x0c
    27f2:	7d 85       	ldd	r23, Y+13	; 0x0d
    27f4:	8e 85       	ldd	r24, Y+14	; 0x0e
    27f6:	9f 85       	ldd	r25, Y+15	; 0x0f
    27f8:	e0 e8       	ldi	r30, 0x80	; 128
    27fa:	ae 2e       	mov	r10, r30
    27fc:	f6 e9       	ldi	r31, 0x96	; 150
    27fe:	bf 2e       	mov	r11, r31
    2800:	a8 e9       	ldi	r26, 0x98	; 152
    2802:	ca 2e       	mov	r12, r26
    2804:	dd 24       	eor	r13, r13
    2806:	ee 24       	eor	r14, r14
    2808:	ff 24       	eor	r15, r15
    280a:	00 e0       	ldi	r16, 0x00	; 0
    280c:	10 e0       	ldi	r17, 0x00	; 0
    280e:	0e 94 1c 04 	call	0x838	; 0x838 <__udivdi3>
    2812:	82 2f       	mov	r24, r18
    2814:	80 5d       	subi	r24, 0xD0	; 208
    2816:	0e 94 d4 03 	call	0x7a8	; 0x7a8 <LCD_vSendChar>
    281a:	28 85       	ldd	r18, Y+8	; 0x08
    281c:	39 85       	ldd	r19, Y+9	; 0x09
    281e:	4a 85       	ldd	r20, Y+10	; 0x0a
    2820:	5b 85       	ldd	r21, Y+11	; 0x0b
    2822:	6c 85       	ldd	r22, Y+12	; 0x0c
    2824:	7d 85       	ldd	r23, Y+13	; 0x0d
    2826:	8e 85       	ldd	r24, Y+14	; 0x0e
    2828:	9f 85       	ldd	r25, Y+15	; 0x0f
    282a:	dd ce       	rjmp	.-582    	; 0x25e6 <main+0x5e8>
    282c:	68 85       	ldd	r22, Y+8	; 0x08
    282e:	60 54       	subi	r22, 0x40	; 64
    2830:	21 e0       	ldi	r18, 0x01	; 1
    2832:	e8 85       	ldd	r30, Y+8	; 0x08
    2834:	6e 17       	cp	r22, r30
    2836:	08 f0       	brcs	.+2      	; 0x283a <main+0x83c>
    2838:	20 e0       	ldi	r18, 0x00	; 0
    283a:	99 85       	ldd	r25, Y+9	; 0x09
    283c:	93 54       	subi	r25, 0x43	; 67
    283e:	81 e0       	ldi	r24, 0x01	; 1
    2840:	f9 85       	ldd	r31, Y+9	; 0x09
    2842:	9f 17       	cp	r25, r31
    2844:	08 f0       	brcs	.+2      	; 0x2848 <main+0x84a>
    2846:	80 e0       	ldi	r24, 0x00	; 0
    2848:	29 0f       	add	r18, r25
    284a:	31 e0       	ldi	r19, 0x01	; 1
    284c:	29 17       	cp	r18, r25
    284e:	08 f0       	brcs	.+2      	; 0x2852 <main+0x854>
    2850:	30 e0       	ldi	r19, 0x00	; 0
    2852:	83 2b       	or	r24, r19
    2854:	4a 85       	ldd	r20, Y+10	; 0x0a
    2856:	40 51       	subi	r20, 0x10	; 16
    2858:	91 e0       	ldi	r25, 0x01	; 1
    285a:	3a 85       	ldd	r19, Y+10	; 0x0a
    285c:	43 17       	cp	r20, r19
    285e:	08 f0       	brcs	.+2      	; 0x2862 <main+0x864>
    2860:	90 e0       	ldi	r25, 0x00	; 0
    2862:	38 2f       	mov	r19, r24
    2864:	34 0f       	add	r19, r20
    2866:	81 e0       	ldi	r24, 0x01	; 1
    2868:	34 17       	cp	r19, r20
    286a:	08 f0       	brcs	.+2      	; 0x286e <main+0x870>
    286c:	80 e0       	ldi	r24, 0x00	; 0
    286e:	98 2b       	or	r25, r24
    2870:	4b 85       	ldd	r20, Y+11	; 0x0b
    2872:	41 50       	subi	r20, 0x01	; 1
    2874:	81 e0       	ldi	r24, 0x01	; 1
    2876:	5b 85       	ldd	r21, Y+11	; 0x0b
    2878:	45 17       	cp	r20, r21
    287a:	08 f0       	brcs	.+2      	; 0x287e <main+0x880>
    287c:	80 e0       	ldi	r24, 0x00	; 0
    287e:	79 2f       	mov	r23, r25
    2880:	74 0f       	add	r23, r20
    2882:	91 e0       	ldi	r25, 0x01	; 1
    2884:	74 17       	cp	r23, r20
    2886:	08 f0       	brcs	.+2      	; 0x288a <main+0x88c>
    2888:	90 e0       	ldi	r25, 0x00	; 0
    288a:	89 2b       	or	r24, r25
    288c:	4c 85       	ldd	r20, Y+12	; 0x0c
    288e:	41 50       	subi	r20, 0x01	; 1
    2890:	91 e0       	ldi	r25, 0x01	; 1
    2892:	ac 85       	ldd	r26, Y+12	; 0x0c
    2894:	4a 17       	cp	r20, r26
    2896:	08 f0       	brcs	.+2      	; 0x289a <main+0x89c>
    2898:	90 e0       	ldi	r25, 0x00	; 0
    289a:	e8 2f       	mov	r30, r24
    289c:	e4 0f       	add	r30, r20
    289e:	81 e0       	ldi	r24, 0x01	; 1
    28a0:	e4 17       	cp	r30, r20
    28a2:	08 f0       	brcs	.+2      	; 0x28a6 <main+0x8a8>
    28a4:	80 e0       	ldi	r24, 0x00	; 0
    28a6:	98 2b       	or	r25, r24
    28a8:	4d 85       	ldd	r20, Y+13	; 0x0d
    28aa:	41 50       	subi	r20, 0x01	; 1
    28ac:	81 e0       	ldi	r24, 0x01	; 1
    28ae:	bd 85       	ldd	r27, Y+13	; 0x0d
    28b0:	4b 17       	cp	r20, r27
    28b2:	08 f0       	brcs	.+2      	; 0x28b6 <main+0x8b8>
    28b4:	80 e0       	ldi	r24, 0x00	; 0
    28b6:	94 0f       	add	r25, r20
    28b8:	51 e0       	ldi	r21, 0x01	; 1
    28ba:	94 17       	cp	r25, r20
    28bc:	08 f0       	brcs	.+2      	; 0x28c0 <main+0x8c2>
    28be:	50 e0       	ldi	r21, 0x00	; 0
    28c0:	85 2b       	or	r24, r21
    28c2:	5e 85       	ldd	r21, Y+14	; 0x0e
    28c4:	51 50       	subi	r21, 0x01	; 1
    28c6:	f1 e0       	ldi	r31, 0x01	; 1
    28c8:	4e 85       	ldd	r20, Y+14	; 0x0e
    28ca:	54 17       	cp	r21, r20
    28cc:	08 f0       	brcs	.+2      	; 0x28d0 <main+0x8d2>
    28ce:	f0 e0       	ldi	r31, 0x00	; 0
    28d0:	85 0f       	add	r24, r21
    28d2:	41 e0       	ldi	r20, 0x01	; 1
    28d4:	85 17       	cp	r24, r21
    28d6:	08 f0       	brcs	.+2      	; 0x28da <main+0x8dc>
    28d8:	40 e0       	ldi	r20, 0x00	; 0
    28da:	4f 2b       	or	r20, r31
    28dc:	5f 85       	ldd	r21, Y+15	; 0x0f
    28de:	51 50       	subi	r21, 0x01	; 1
    28e0:	45 0f       	add	r20, r21
    28e2:	a1 f5       	brne	.+104    	; 0x294c <main+0x94e>
    28e4:	88 23       	and	r24, r24
    28e6:	91 f5       	brne	.+100    	; 0x294c <main+0x94e>
    28e8:	99 23       	and	r25, r25
    28ea:	81 f5       	brne	.+96     	; 0x294c <main+0x94e>
    28ec:	ee 23       	and	r30, r30
    28ee:	71 f5       	brne	.+92     	; 0x294c <main+0x94e>
    28f0:	77 23       	and	r23, r23
    28f2:	61 f5       	brne	.+88     	; 0x294c <main+0x94e>
    28f4:	3a 38       	cpi	r19, 0x8A	; 138
    28f6:	50 f5       	brcc	.+84     	; 0x294c <main+0x94e>
    28f8:	39 38       	cpi	r19, 0x89	; 137
    28fa:	31 f4       	brne	.+12     	; 0x2908 <main+0x90a>
    28fc:	25 35       	cpi	r18, 0x55	; 85
    28fe:	30 f5       	brcc	.+76     	; 0x294c <main+0x94e>
    2900:	24 35       	cpi	r18, 0x54	; 84
    2902:	11 f4       	brne	.+4      	; 0x2908 <main+0x90a>
    2904:	60 34       	cpi	r22, 0x40	; 64
    2906:	10 f5       	brcc	.+68     	; 0x294c <main+0x94e>
    2908:	28 85       	ldd	r18, Y+8	; 0x08
    290a:	39 85       	ldd	r19, Y+9	; 0x09
    290c:	4a 85       	ldd	r20, Y+10	; 0x0a
    290e:	5b 85       	ldd	r21, Y+11	; 0x0b
    2910:	6c 85       	ldd	r22, Y+12	; 0x0c
    2912:	7d 85       	ldd	r23, Y+13	; 0x0d
    2914:	8e 85       	ldd	r24, Y+14	; 0x0e
    2916:	9f 85       	ldd	r25, Y+15	; 0x0f
    2918:	b0 e4       	ldi	r27, 0x40	; 64
    291a:	ab 2e       	mov	r10, r27
    291c:	12 e4       	ldi	r17, 0x42	; 66
    291e:	b1 2e       	mov	r11, r17
    2920:	0f e0       	ldi	r16, 0x0F	; 15
    2922:	c0 2e       	mov	r12, r16
    2924:	dd 24       	eor	r13, r13
    2926:	ee 24       	eor	r14, r14
    2928:	ff 24       	eor	r15, r15
    292a:	00 e0       	ldi	r16, 0x00	; 0
    292c:	10 e0       	ldi	r17, 0x00	; 0
    292e:	0e 94 1c 04 	call	0x838	; 0x838 <__udivdi3>
    2932:	82 2f       	mov	r24, r18
    2934:	80 5d       	subi	r24, 0xD0	; 208
    2936:	0e 94 d4 03 	call	0x7a8	; 0x7a8 <LCD_vSendChar>
    293a:	28 85       	ldd	r18, Y+8	; 0x08
    293c:	39 85       	ldd	r19, Y+9	; 0x09
    293e:	4a 85       	ldd	r20, Y+10	; 0x0a
    2940:	5b 85       	ldd	r21, Y+11	; 0x0b
    2942:	6c 85       	ldd	r22, Y+12	; 0x0c
    2944:	7d 85       	ldd	r23, Y+13	; 0x0d
    2946:	8e 85       	ldd	r24, Y+14	; 0x0e
    2948:	9f 85       	ldd	r25, Y+15	; 0x0f
    294a:	6b ce       	rjmp	.-810    	; 0x2622 <main+0x624>
    294c:	68 85       	ldd	r22, Y+8	; 0x08
    294e:	60 5a       	subi	r22, 0xA0	; 160
    2950:	21 e0       	ldi	r18, 0x01	; 1
    2952:	58 85       	ldd	r21, Y+8	; 0x08
    2954:	65 17       	cp	r22, r21
    2956:	08 f0       	brcs	.+2      	; 0x295a <main+0x95c>
    2958:	20 e0       	ldi	r18, 0x00	; 0
    295a:	99 85       	ldd	r25, Y+9	; 0x09
    295c:	97 58       	subi	r25, 0x87	; 135
    295e:	81 e0       	ldi	r24, 0x01	; 1
    2960:	79 85       	ldd	r23, Y+9	; 0x09
    2962:	97 17       	cp	r25, r23
    2964:	08 f0       	brcs	.+2      	; 0x2968 <main+0x96a>
    2966:	80 e0       	ldi	r24, 0x00	; 0
    2968:	29 0f       	add	r18, r25
    296a:	31 e0       	ldi	r19, 0x01	; 1
    296c:	29 17       	cp	r18, r25
    296e:	08 f0       	brcs	.+2      	; 0x2972 <main+0x974>
    2970:	30 e0       	ldi	r19, 0x00	; 0
    2972:	83 2b       	or	r24, r19
    2974:	4a 85       	ldd	r20, Y+10	; 0x0a
    2976:	42 50       	subi	r20, 0x02	; 2
    2978:	91 e0       	ldi	r25, 0x01	; 1
    297a:	aa 85       	ldd	r26, Y+10	; 0x0a
    297c:	4a 17       	cp	r20, r26
    297e:	08 f0       	brcs	.+2      	; 0x2982 <main+0x984>
    2980:	90 e0       	ldi	r25, 0x00	; 0
    2982:	38 2f       	mov	r19, r24
    2984:	34 0f       	add	r19, r20
    2986:	81 e0       	ldi	r24, 0x01	; 1
    2988:	34 17       	cp	r19, r20
    298a:	08 f0       	brcs	.+2      	; 0x298e <main+0x990>
    298c:	80 e0       	ldi	r24, 0x00	; 0
    298e:	98 2b       	or	r25, r24
    2990:	4b 85       	ldd	r20, Y+11	; 0x0b
    2992:	41 50       	subi	r20, 0x01	; 1
    2994:	81 e0       	ldi	r24, 0x01	; 1
    2996:	bb 85       	ldd	r27, Y+11	; 0x0b
    2998:	4b 17       	cp	r20, r27
    299a:	08 f0       	brcs	.+2      	; 0x299e <main+0x9a0>
    299c:	80 e0       	ldi	r24, 0x00	; 0
    299e:	79 2f       	mov	r23, r25
    29a0:	74 0f       	add	r23, r20
    29a2:	91 e0       	ldi	r25, 0x01	; 1
    29a4:	74 17       	cp	r23, r20
    29a6:	08 f0       	brcs	.+2      	; 0x29aa <main+0x9ac>
    29a8:	90 e0       	ldi	r25, 0x00	; 0
    29aa:	89 2b       	or	r24, r25
    29ac:	4c 85       	ldd	r20, Y+12	; 0x0c
    29ae:	41 50       	subi	r20, 0x01	; 1
    29b0:	91 e0       	ldi	r25, 0x01	; 1
    29b2:	ec 85       	ldd	r30, Y+12	; 0x0c
    29b4:	4e 17       	cp	r20, r30
    29b6:	08 f0       	brcs	.+2      	; 0x29ba <main+0x9bc>
    29b8:	90 e0       	ldi	r25, 0x00	; 0
    29ba:	e8 2f       	mov	r30, r24
    29bc:	e4 0f       	add	r30, r20
    29be:	81 e0       	ldi	r24, 0x01	; 1
    29c0:	e4 17       	cp	r30, r20
    29c2:	08 f0       	brcs	.+2      	; 0x29c6 <main+0x9c8>
    29c4:	80 e0       	ldi	r24, 0x00	; 0
    29c6:	98 2b       	or	r25, r24
    29c8:	4d 85       	ldd	r20, Y+13	; 0x0d
    29ca:	41 50       	subi	r20, 0x01	; 1
    29cc:	81 e0       	ldi	r24, 0x01	; 1
    29ce:	fd 85       	ldd	r31, Y+13	; 0x0d
    29d0:	4f 17       	cp	r20, r31
    29d2:	08 f0       	brcs	.+2      	; 0x29d6 <main+0x9d8>
    29d4:	80 e0       	ldi	r24, 0x00	; 0
    29d6:	94 0f       	add	r25, r20
    29d8:	51 e0       	ldi	r21, 0x01	; 1
    29da:	94 17       	cp	r25, r20
    29dc:	08 f0       	brcs	.+2      	; 0x29e0 <main+0x9e2>
    29de:	50 e0       	ldi	r21, 0x00	; 0
    29e0:	85 2b       	or	r24, r21
    29e2:	5e 85       	ldd	r21, Y+14	; 0x0e
    29e4:	51 50       	subi	r21, 0x01	; 1
    29e6:	f1 e0       	ldi	r31, 0x01	; 1
    29e8:	4e 85       	ldd	r20, Y+14	; 0x0e
    29ea:	54 17       	cp	r21, r20
    29ec:	08 f0       	brcs	.+2      	; 0x29f0 <main+0x9f2>
    29ee:	f0 e0       	ldi	r31, 0x00	; 0
    29f0:	85 0f       	add	r24, r21
    29f2:	41 e0       	ldi	r20, 0x01	; 1
    29f4:	85 17       	cp	r24, r21
    29f6:	08 f0       	brcs	.+2      	; 0x29fa <main+0x9fc>
    29f8:	40 e0       	ldi	r20, 0x00	; 0
    29fa:	4f 2b       	or	r20, r31
    29fc:	5f 85       	ldd	r21, Y+15	; 0x0f
    29fe:	51 50       	subi	r21, 0x01	; 1
    2a00:	45 0f       	add	r20, r21
    2a02:	a1 f5       	brne	.+104    	; 0x2a6c <main+0xa6e>
    2a04:	88 23       	and	r24, r24
    2a06:	91 f5       	brne	.+100    	; 0x2a6c <main+0xa6e>
    2a08:	99 23       	and	r25, r25
    2a0a:	81 f5       	brne	.+96     	; 0x2a6c <main+0xa6e>
    2a0c:	ee 23       	and	r30, r30
    2a0e:	71 f5       	brne	.+92     	; 0x2a6c <main+0xa6e>
    2a10:	77 23       	and	r23, r23
    2a12:	61 f5       	brne	.+88     	; 0x2a6c <main+0xa6e>
    2a14:	3e 30       	cpi	r19, 0x0E	; 14
    2a16:	50 f5       	brcc	.+84     	; 0x2a6c <main+0xa6e>
    2a18:	3d 30       	cpi	r19, 0x0D	; 13
    2a1a:	31 f4       	brne	.+12     	; 0x2a28 <main+0xa2a>
    2a1c:	2c 3b       	cpi	r18, 0xBC	; 188
    2a1e:	30 f5       	brcc	.+76     	; 0x2a6c <main+0xa6e>
    2a20:	2b 3b       	cpi	r18, 0xBB	; 187
    2a22:	11 f4       	brne	.+4      	; 0x2a28 <main+0xa2a>
    2a24:	60 3a       	cpi	r22, 0xA0	; 160
    2a26:	10 f5       	brcc	.+68     	; 0x2a6c <main+0xa6e>
    2a28:	28 85       	ldd	r18, Y+8	; 0x08
    2a2a:	39 85       	ldd	r19, Y+9	; 0x09
    2a2c:	4a 85       	ldd	r20, Y+10	; 0x0a
    2a2e:	5b 85       	ldd	r21, Y+11	; 0x0b
    2a30:	6c 85       	ldd	r22, Y+12	; 0x0c
    2a32:	7d 85       	ldd	r23, Y+13	; 0x0d
    2a34:	8e 85       	ldd	r24, Y+14	; 0x0e
    2a36:	9f 85       	ldd	r25, Y+15	; 0x0f
    2a38:	f0 ea       	ldi	r31, 0xA0	; 160
    2a3a:	af 2e       	mov	r10, r31
    2a3c:	a6 e8       	ldi	r26, 0x86	; 134
    2a3e:	ba 2e       	mov	r11, r26
    2a40:	cc 24       	eor	r12, r12
    2a42:	c3 94       	inc	r12
    2a44:	dd 24       	eor	r13, r13
    2a46:	ee 24       	eor	r14, r14
    2a48:	ff 24       	eor	r15, r15
    2a4a:	00 e0       	ldi	r16, 0x00	; 0
    2a4c:	10 e0       	ldi	r17, 0x00	; 0
    2a4e:	0e 94 1c 04 	call	0x838	; 0x838 <__udivdi3>
    2a52:	82 2f       	mov	r24, r18
    2a54:	80 5d       	subi	r24, 0xD0	; 208
    2a56:	0e 94 d4 03 	call	0x7a8	; 0x7a8 <LCD_vSendChar>
    2a5a:	28 85       	ldd	r18, Y+8	; 0x08
    2a5c:	39 85       	ldd	r19, Y+9	; 0x09
    2a5e:	4a 85       	ldd	r20, Y+10	; 0x0a
    2a60:	5b 85       	ldd	r21, Y+11	; 0x0b
    2a62:	6c 85       	ldd	r22, Y+12	; 0x0c
    2a64:	7d 85       	ldd	r23, Y+13	; 0x0d
    2a66:	8e 85       	ldd	r24, Y+14	; 0x0e
    2a68:	9f 85       	ldd	r25, Y+15	; 0x0f
    2a6a:	f9 cd       	rjmp	.-1038   	; 0x265e <main+0x660>
    2a6c:	68 85       	ldd	r22, Y+8	; 0x08
    2a6e:	60 51       	subi	r22, 0x10	; 16
    2a70:	21 e0       	ldi	r18, 0x01	; 1
    2a72:	58 85       	ldd	r21, Y+8	; 0x08
    2a74:	65 17       	cp	r22, r21
    2a76:	08 f0       	brcs	.+2      	; 0x2a7a <main+0xa7c>
    2a78:	20 e0       	ldi	r18, 0x00	; 0
    2a7a:	99 85       	ldd	r25, Y+9	; 0x09
    2a7c:	98 52       	subi	r25, 0x28	; 40
    2a7e:	81 e0       	ldi	r24, 0x01	; 1
    2a80:	79 85       	ldd	r23, Y+9	; 0x09
    2a82:	97 17       	cp	r25, r23
    2a84:	08 f0       	brcs	.+2      	; 0x2a88 <main+0xa8a>
    2a86:	80 e0       	ldi	r24, 0x00	; 0
    2a88:	29 0f       	add	r18, r25
    2a8a:	31 e0       	ldi	r19, 0x01	; 1
    2a8c:	29 17       	cp	r18, r25
    2a8e:	08 f0       	brcs	.+2      	; 0x2a92 <main+0xa94>
    2a90:	30 e0       	ldi	r19, 0x00	; 0
    2a92:	83 2b       	or	r24, r19
    2a94:	4a 85       	ldd	r20, Y+10	; 0x0a
    2a96:	41 50       	subi	r20, 0x01	; 1
    2a98:	91 e0       	ldi	r25, 0x01	; 1
    2a9a:	aa 85       	ldd	r26, Y+10	; 0x0a
    2a9c:	4a 17       	cp	r20, r26
    2a9e:	08 f0       	brcs	.+2      	; 0x2aa2 <main+0xaa4>
    2aa0:	90 e0       	ldi	r25, 0x00	; 0
    2aa2:	38 2f       	mov	r19, r24
    2aa4:	34 0f       	add	r19, r20
    2aa6:	81 e0       	ldi	r24, 0x01	; 1
    2aa8:	34 17       	cp	r19, r20
    2aaa:	08 f0       	brcs	.+2      	; 0x2aae <main+0xab0>
    2aac:	80 e0       	ldi	r24, 0x00	; 0
    2aae:	98 2b       	or	r25, r24
    2ab0:	4b 85       	ldd	r20, Y+11	; 0x0b
    2ab2:	41 50       	subi	r20, 0x01	; 1
    2ab4:	81 e0       	ldi	r24, 0x01	; 1
    2ab6:	bb 85       	ldd	r27, Y+11	; 0x0b
    2ab8:	4b 17       	cp	r20, r27
    2aba:	08 f0       	brcs	.+2      	; 0x2abe <main+0xac0>
    2abc:	80 e0       	ldi	r24, 0x00	; 0
    2abe:	79 2f       	mov	r23, r25
    2ac0:	74 0f       	add	r23, r20
    2ac2:	91 e0       	ldi	r25, 0x01	; 1
    2ac4:	74 17       	cp	r23, r20
    2ac6:	08 f0       	brcs	.+2      	; 0x2aca <main+0xacc>
    2ac8:	90 e0       	ldi	r25, 0x00	; 0
    2aca:	89 2b       	or	r24, r25
    2acc:	4c 85       	ldd	r20, Y+12	; 0x0c
    2ace:	41 50       	subi	r20, 0x01	; 1
    2ad0:	91 e0       	ldi	r25, 0x01	; 1
    2ad2:	ec 85       	ldd	r30, Y+12	; 0x0c
    2ad4:	4e 17       	cp	r20, r30
    2ad6:	08 f0       	brcs	.+2      	; 0x2ada <main+0xadc>
    2ad8:	90 e0       	ldi	r25, 0x00	; 0
    2ada:	e8 2f       	mov	r30, r24
    2adc:	e4 0f       	add	r30, r20
    2ade:	81 e0       	ldi	r24, 0x01	; 1
    2ae0:	e4 17       	cp	r30, r20
    2ae2:	08 f0       	brcs	.+2      	; 0x2ae6 <main+0xae8>
    2ae4:	80 e0       	ldi	r24, 0x00	; 0
    2ae6:	98 2b       	or	r25, r24
    2ae8:	4d 85       	ldd	r20, Y+13	; 0x0d
    2aea:	41 50       	subi	r20, 0x01	; 1
    2aec:	81 e0       	ldi	r24, 0x01	; 1
    2aee:	fd 85       	ldd	r31, Y+13	; 0x0d
    2af0:	4f 17       	cp	r20, r31
    2af2:	08 f0       	brcs	.+2      	; 0x2af6 <main+0xaf8>
    2af4:	80 e0       	ldi	r24, 0x00	; 0
    2af6:	94 0f       	add	r25, r20
    2af8:	51 e0       	ldi	r21, 0x01	; 1
    2afa:	94 17       	cp	r25, r20
    2afc:	08 f0       	brcs	.+2      	; 0x2b00 <main+0xb02>
    2afe:	50 e0       	ldi	r21, 0x00	; 0
    2b00:	85 2b       	or	r24, r21
    2b02:	5e 85       	ldd	r21, Y+14	; 0x0e
    2b04:	51 50       	subi	r21, 0x01	; 1
    2b06:	f1 e0       	ldi	r31, 0x01	; 1
    2b08:	4e 85       	ldd	r20, Y+14	; 0x0e
    2b0a:	54 17       	cp	r21, r20
    2b0c:	08 f0       	brcs	.+2      	; 0x2b10 <main+0xb12>
    2b0e:	f0 e0       	ldi	r31, 0x00	; 0
    2b10:	85 0f       	add	r24, r21
    2b12:	41 e0       	ldi	r20, 0x01	; 1
    2b14:	85 17       	cp	r24, r21
    2b16:	08 f0       	brcs	.+2      	; 0x2b1a <main+0xb1c>
    2b18:	40 e0       	ldi	r20, 0x00	; 0
    2b1a:	4f 2b       	or	r20, r31
    2b1c:	5f 85       	ldd	r21, Y+15	; 0x0f
    2b1e:	51 50       	subi	r21, 0x01	; 1
    2b20:	45 0f       	add	r20, r21
    2b22:	99 f5       	brne	.+102    	; 0x2b8a <main+0xb8c>
    2b24:	88 23       	and	r24, r24
    2b26:	89 f5       	brne	.+98     	; 0x2b8a <main+0xb8c>
    2b28:	99 23       	and	r25, r25
    2b2a:	79 f5       	brne	.+94     	; 0x2b8a <main+0xb8c>
    2b2c:	ee 23       	and	r30, r30
    2b2e:	69 f5       	brne	.+90     	; 0x2b8a <main+0xb8c>
    2b30:	77 23       	and	r23, r23
    2b32:	59 f5       	brne	.+86     	; 0x2b8a <main+0xb8c>
    2b34:	32 30       	cpi	r19, 0x02	; 2
    2b36:	48 f5       	brcc	.+82     	; 0x2b8a <main+0xb8c>
    2b38:	31 30       	cpi	r19, 0x01	; 1
    2b3a:	31 f4       	brne	.+12     	; 0x2b48 <main+0xb4a>
    2b3c:	20 36       	cpi	r18, 0x60	; 96
    2b3e:	28 f5       	brcc	.+74     	; 0x2b8a <main+0xb8c>
    2b40:	2f 35       	cpi	r18, 0x5F	; 95
    2b42:	11 f4       	brne	.+4      	; 0x2b48 <main+0xb4a>
    2b44:	60 39       	cpi	r22, 0x90	; 144
    2b46:	08 f5       	brcc	.+66     	; 0x2b8a <main+0xb8c>
    2b48:	28 85       	ldd	r18, Y+8	; 0x08
    2b4a:	39 85       	ldd	r19, Y+9	; 0x09
    2b4c:	4a 85       	ldd	r20, Y+10	; 0x0a
    2b4e:	5b 85       	ldd	r21, Y+11	; 0x0b
    2b50:	6c 85       	ldd	r22, Y+12	; 0x0c
    2b52:	7d 85       	ldd	r23, Y+13	; 0x0d
    2b54:	8e 85       	ldd	r24, Y+14	; 0x0e
    2b56:	9f 85       	ldd	r25, Y+15	; 0x0f
    2b58:	00 e1       	ldi	r16, 0x10	; 16
    2b5a:	a0 2e       	mov	r10, r16
    2b5c:	e7 e2       	ldi	r30, 0x27	; 39
    2b5e:	be 2e       	mov	r11, r30
    2b60:	cc 24       	eor	r12, r12
    2b62:	dd 24       	eor	r13, r13
    2b64:	ee 24       	eor	r14, r14
    2b66:	ff 24       	eor	r15, r15
    2b68:	00 e0       	ldi	r16, 0x00	; 0
    2b6a:	10 e0       	ldi	r17, 0x00	; 0
    2b6c:	0e 94 1c 04 	call	0x838	; 0x838 <__udivdi3>
    2b70:	82 2f       	mov	r24, r18
    2b72:	80 5d       	subi	r24, 0xD0	; 208
    2b74:	0e 94 d4 03 	call	0x7a8	; 0x7a8 <LCD_vSendChar>
    2b78:	28 85       	ldd	r18, Y+8	; 0x08
    2b7a:	39 85       	ldd	r19, Y+9	; 0x09
    2b7c:	4a 85       	ldd	r20, Y+10	; 0x0a
    2b7e:	5b 85       	ldd	r21, Y+11	; 0x0b
    2b80:	6c 85       	ldd	r22, Y+12	; 0x0c
    2b82:	7d 85       	ldd	r23, Y+13	; 0x0d
    2b84:	8e 85       	ldd	r24, Y+14	; 0x0e
    2b86:	9f 85       	ldd	r25, Y+15	; 0x0f
    2b88:	87 cd       	rjmp	.-1266   	; 0x2698 <main+0x69a>
    2b8a:	58 85       	ldd	r21, Y+8	; 0x08
    2b8c:	58 5e       	subi	r21, 0xE8	; 232
    2b8e:	21 e0       	ldi	r18, 0x01	; 1
    2b90:	68 85       	ldd	r22, Y+8	; 0x08
    2b92:	56 17       	cp	r21, r22
    2b94:	08 f0       	brcs	.+2      	; 0x2b98 <main+0xb9a>
    2b96:	20 e0       	ldi	r18, 0x00	; 0
    2b98:	99 85       	ldd	r25, Y+9	; 0x09
    2b9a:	94 50       	subi	r25, 0x04	; 4
    2b9c:	81 e0       	ldi	r24, 0x01	; 1
    2b9e:	79 85       	ldd	r23, Y+9	; 0x09
    2ba0:	97 17       	cp	r25, r23
    2ba2:	08 f0       	brcs	.+2      	; 0x2ba6 <main+0xba8>
    2ba4:	80 e0       	ldi	r24, 0x00	; 0
    2ba6:	29 0f       	add	r18, r25
    2ba8:	31 e0       	ldi	r19, 0x01	; 1
    2baa:	29 17       	cp	r18, r25
    2bac:	08 f0       	brcs	.+2      	; 0x2bb0 <main+0xbb2>
    2bae:	30 e0       	ldi	r19, 0x00	; 0
    2bb0:	83 2b       	or	r24, r19
    2bb2:	3a 85       	ldd	r19, Y+10	; 0x0a
    2bb4:	31 50       	subi	r19, 0x01	; 1
    2bb6:	91 e0       	ldi	r25, 0x01	; 1
    2bb8:	aa 85       	ldd	r26, Y+10	; 0x0a
    2bba:	3a 17       	cp	r19, r26
    2bbc:	08 f0       	brcs	.+2      	; 0x2bc0 <main+0xbc2>
    2bbe:	90 e0       	ldi	r25, 0x00	; 0
    2bc0:	68 2f       	mov	r22, r24
    2bc2:	63 0f       	add	r22, r19
    2bc4:	81 e0       	ldi	r24, 0x01	; 1
    2bc6:	63 17       	cp	r22, r19
    2bc8:	08 f0       	brcs	.+2      	; 0x2bcc <main+0xbce>
    2bca:	80 e0       	ldi	r24, 0x00	; 0
    2bcc:	98 2b       	or	r25, r24
    2bce:	3b 85       	ldd	r19, Y+11	; 0x0b
    2bd0:	31 50       	subi	r19, 0x01	; 1
    2bd2:	81 e0       	ldi	r24, 0x01	; 1
    2bd4:	bb 85       	ldd	r27, Y+11	; 0x0b
    2bd6:	3b 17       	cp	r19, r27
    2bd8:	08 f0       	brcs	.+2      	; 0x2bdc <main+0xbde>
    2bda:	80 e0       	ldi	r24, 0x00	; 0
    2bdc:	79 2f       	mov	r23, r25
    2bde:	73 0f       	add	r23, r19
    2be0:	91 e0       	ldi	r25, 0x01	; 1
    2be2:	73 17       	cp	r23, r19
    2be4:	08 f0       	brcs	.+2      	; 0x2be8 <main+0xbea>
    2be6:	90 e0       	ldi	r25, 0x00	; 0
    2be8:	89 2b       	or	r24, r25
    2bea:	3c 85       	ldd	r19, Y+12	; 0x0c
    2bec:	31 50       	subi	r19, 0x01	; 1
    2bee:	91 e0       	ldi	r25, 0x01	; 1
    2bf0:	ec 85       	ldd	r30, Y+12	; 0x0c
    2bf2:	3e 17       	cp	r19, r30
    2bf4:	08 f0       	brcs	.+2      	; 0x2bf8 <main+0xbfa>
    2bf6:	90 e0       	ldi	r25, 0x00	; 0
    2bf8:	e8 2f       	mov	r30, r24
    2bfa:	e3 0f       	add	r30, r19
    2bfc:	81 e0       	ldi	r24, 0x01	; 1
    2bfe:	e3 17       	cp	r30, r19
    2c00:	08 f0       	brcs	.+2      	; 0x2c04 <main+0xc06>
    2c02:	80 e0       	ldi	r24, 0x00	; 0
    2c04:	98 2b       	or	r25, r24
    2c06:	3d 85       	ldd	r19, Y+13	; 0x0d
    2c08:	31 50       	subi	r19, 0x01	; 1
    2c0a:	81 e0       	ldi	r24, 0x01	; 1
    2c0c:	fd 85       	ldd	r31, Y+13	; 0x0d
    2c0e:	3f 17       	cp	r19, r31
    2c10:	08 f0       	brcs	.+2      	; 0x2c14 <main+0xc16>
    2c12:	80 e0       	ldi	r24, 0x00	; 0
    2c14:	93 0f       	add	r25, r19
    2c16:	41 e0       	ldi	r20, 0x01	; 1
    2c18:	93 17       	cp	r25, r19
    2c1a:	08 f0       	brcs	.+2      	; 0x2c1e <main+0xc20>
    2c1c:	40 e0       	ldi	r20, 0x00	; 0
    2c1e:	84 2b       	or	r24, r20
    2c20:	4e 85       	ldd	r20, Y+14	; 0x0e
    2c22:	41 50       	subi	r20, 0x01	; 1
    2c24:	f1 e0       	ldi	r31, 0x01	; 1
    2c26:	3e 85       	ldd	r19, Y+14	; 0x0e
    2c28:	43 17       	cp	r20, r19
    2c2a:	08 f0       	brcs	.+2      	; 0x2c2e <main+0xc30>
    2c2c:	f0 e0       	ldi	r31, 0x00	; 0
    2c2e:	84 0f       	add	r24, r20
    2c30:	31 e0       	ldi	r19, 0x01	; 1
    2c32:	84 17       	cp	r24, r20
    2c34:	08 f0       	brcs	.+2      	; 0x2c38 <main+0xc3a>
    2c36:	30 e0       	ldi	r19, 0x00	; 0
    2c38:	3f 2b       	or	r19, r31
    2c3a:	4f 85       	ldd	r20, Y+15	; 0x0f
    2c3c:	41 50       	subi	r20, 0x01	; 1
    2c3e:	34 0f       	add	r19, r20
    2c40:	89 f5       	brne	.+98     	; 0x2ca4 <main+0xca6>
    2c42:	88 23       	and	r24, r24
    2c44:	79 f5       	brne	.+94     	; 0x2ca4 <main+0xca6>
    2c46:	99 23       	and	r25, r25
    2c48:	69 f5       	brne	.+90     	; 0x2ca4 <main+0xca6>
    2c4a:	ee 23       	and	r30, r30
    2c4c:	59 f5       	brne	.+86     	; 0x2ca4 <main+0xca6>
    2c4e:	77 23       	and	r23, r23
    2c50:	49 f5       	brne	.+82     	; 0x2ca4 <main+0xca6>
    2c52:	66 23       	and	r22, r22
    2c54:	39 f5       	brne	.+78     	; 0x2ca4 <main+0xca6>
    2c56:	24 32       	cpi	r18, 0x24	; 36
    2c58:	28 f5       	brcc	.+74     	; 0x2ca4 <main+0xca6>
    2c5a:	23 32       	cpi	r18, 0x23	; 35
    2c5c:	11 f4       	brne	.+4      	; 0x2c62 <main+0xc64>
    2c5e:	58 32       	cpi	r21, 0x28	; 40
    2c60:	08 f5       	brcc	.+66     	; 0x2ca4 <main+0xca6>
    2c62:	28 85       	ldd	r18, Y+8	; 0x08
    2c64:	39 85       	ldd	r19, Y+9	; 0x09
    2c66:	4a 85       	ldd	r20, Y+10	; 0x0a
    2c68:	5b 85       	ldd	r21, Y+11	; 0x0b
    2c6a:	6c 85       	ldd	r22, Y+12	; 0x0c
    2c6c:	7d 85       	ldd	r23, Y+13	; 0x0d
    2c6e:	8e 85       	ldd	r24, Y+14	; 0x0e
    2c70:	9f 85       	ldd	r25, Y+15	; 0x0f
    2c72:	b8 ee       	ldi	r27, 0xE8	; 232
    2c74:	ab 2e       	mov	r10, r27
    2c76:	13 e0       	ldi	r17, 0x03	; 3
    2c78:	b1 2e       	mov	r11, r17
    2c7a:	cc 24       	eor	r12, r12
    2c7c:	dd 24       	eor	r13, r13
    2c7e:	ee 24       	eor	r14, r14
    2c80:	ff 24       	eor	r15, r15
    2c82:	00 e0       	ldi	r16, 0x00	; 0
    2c84:	10 e0       	ldi	r17, 0x00	; 0
    2c86:	0e 94 1c 04 	call	0x838	; 0x838 <__udivdi3>
    2c8a:	82 2f       	mov	r24, r18
    2c8c:	80 5d       	subi	r24, 0xD0	; 208
    2c8e:	0e 94 d4 03 	call	0x7a8	; 0x7a8 <LCD_vSendChar>
    2c92:	28 85       	ldd	r18, Y+8	; 0x08
    2c94:	39 85       	ldd	r19, Y+9	; 0x09
    2c96:	4a 85       	ldd	r20, Y+10	; 0x0a
    2c98:	5b 85       	ldd	r21, Y+11	; 0x0b
    2c9a:	6c 85       	ldd	r22, Y+12	; 0x0c
    2c9c:	7d 85       	ldd	r23, Y+13	; 0x0d
    2c9e:	8e 85       	ldd	r24, Y+14	; 0x0e
    2ca0:	9f 85       	ldd	r25, Y+15	; 0x0f
    2ca2:	16 cd       	rjmp	.-1492   	; 0x26d0 <main+0x6d2>
    2ca4:	58 85       	ldd	r21, Y+8	; 0x08
    2ca6:	54 56       	subi	r21, 0x64	; 100
    2ca8:	21 e0       	ldi	r18, 0x01	; 1
    2caa:	48 85       	ldd	r20, Y+8	; 0x08
    2cac:	54 17       	cp	r21, r20
    2cae:	08 f0       	brcs	.+2      	; 0x2cb2 <main+0xcb4>
    2cb0:	20 e0       	ldi	r18, 0x00	; 0
    2cb2:	99 85       	ldd	r25, Y+9	; 0x09
    2cb4:	91 50       	subi	r25, 0x01	; 1
    2cb6:	81 e0       	ldi	r24, 0x01	; 1
    2cb8:	69 85       	ldd	r22, Y+9	; 0x09
    2cba:	96 17       	cp	r25, r22
    2cbc:	08 f0       	brcs	.+2      	; 0x2cc0 <main+0xcc2>
    2cbe:	80 e0       	ldi	r24, 0x00	; 0
    2cc0:	29 0f       	add	r18, r25
    2cc2:	31 e0       	ldi	r19, 0x01	; 1
    2cc4:	29 17       	cp	r18, r25
    2cc6:	08 f0       	brcs	.+2      	; 0x2cca <main+0xccc>
    2cc8:	30 e0       	ldi	r19, 0x00	; 0
    2cca:	83 2b       	or	r24, r19
    2ccc:	3a 85       	ldd	r19, Y+10	; 0x0a
    2cce:	31 50       	subi	r19, 0x01	; 1
    2cd0:	91 e0       	ldi	r25, 0x01	; 1
    2cd2:	7a 85       	ldd	r23, Y+10	; 0x0a
    2cd4:	37 17       	cp	r19, r23
    2cd6:	08 f0       	brcs	.+2      	; 0x2cda <main+0xcdc>
    2cd8:	90 e0       	ldi	r25, 0x00	; 0
    2cda:	68 2f       	mov	r22, r24
    2cdc:	63 0f       	add	r22, r19
    2cde:	81 e0       	ldi	r24, 0x01	; 1
    2ce0:	63 17       	cp	r22, r19
    2ce2:	08 f0       	brcs	.+2      	; 0x2ce6 <main+0xce8>
    2ce4:	80 e0       	ldi	r24, 0x00	; 0
    2ce6:	98 2b       	or	r25, r24
    2ce8:	3b 85       	ldd	r19, Y+11	; 0x0b
    2cea:	31 50       	subi	r19, 0x01	; 1
    2cec:	81 e0       	ldi	r24, 0x01	; 1
    2cee:	ab 85       	ldd	r26, Y+11	; 0x0b
    2cf0:	3a 17       	cp	r19, r26
    2cf2:	08 f0       	brcs	.+2      	; 0x2cf6 <main+0xcf8>
    2cf4:	80 e0       	ldi	r24, 0x00	; 0
    2cf6:	79 2f       	mov	r23, r25
    2cf8:	73 0f       	add	r23, r19
    2cfa:	91 e0       	ldi	r25, 0x01	; 1
    2cfc:	73 17       	cp	r23, r19
    2cfe:	08 f0       	brcs	.+2      	; 0x2d02 <main+0xd04>
    2d00:	90 e0       	ldi	r25, 0x00	; 0
    2d02:	89 2b       	or	r24, r25
    2d04:	3c 85       	ldd	r19, Y+12	; 0x0c
    2d06:	31 50       	subi	r19, 0x01	; 1
    2d08:	91 e0       	ldi	r25, 0x01	; 1
    2d0a:	bc 85       	ldd	r27, Y+12	; 0x0c
    2d0c:	3b 17       	cp	r19, r27
    2d0e:	08 f0       	brcs	.+2      	; 0x2d12 <main+0xd14>
    2d10:	90 e0       	ldi	r25, 0x00	; 0
    2d12:	e8 2f       	mov	r30, r24
    2d14:	e3 0f       	add	r30, r19
    2d16:	81 e0       	ldi	r24, 0x01	; 1
    2d18:	e3 17       	cp	r30, r19
    2d1a:	08 f0       	brcs	.+2      	; 0x2d1e <main+0xd20>
    2d1c:	80 e0       	ldi	r24, 0x00	; 0
    2d1e:	98 2b       	or	r25, r24
    2d20:	3d 85       	ldd	r19, Y+13	; 0x0d
    2d22:	31 50       	subi	r19, 0x01	; 1
    2d24:	81 e0       	ldi	r24, 0x01	; 1
    2d26:	fd 85       	ldd	r31, Y+13	; 0x0d
    2d28:	3f 17       	cp	r19, r31
    2d2a:	08 f0       	brcs	.+2      	; 0x2d2e <main+0xd30>
    2d2c:	80 e0       	ldi	r24, 0x00	; 0
    2d2e:	93 0f       	add	r25, r19
    2d30:	41 e0       	ldi	r20, 0x01	; 1
    2d32:	93 17       	cp	r25, r19
    2d34:	08 f0       	brcs	.+2      	; 0x2d38 <main+0xd3a>
    2d36:	40 e0       	ldi	r20, 0x00	; 0
    2d38:	84 2b       	or	r24, r20
    2d3a:	4e 85       	ldd	r20, Y+14	; 0x0e
    2d3c:	41 50       	subi	r20, 0x01	; 1
    2d3e:	f1 e0       	ldi	r31, 0x01	; 1
    2d40:	3e 85       	ldd	r19, Y+14	; 0x0e
    2d42:	43 17       	cp	r20, r19
    2d44:	08 f0       	brcs	.+2      	; 0x2d48 <main+0xd4a>
    2d46:	f0 e0       	ldi	r31, 0x00	; 0
    2d48:	84 0f       	add	r24, r20
    2d4a:	31 e0       	ldi	r19, 0x01	; 1
    2d4c:	84 17       	cp	r24, r20
    2d4e:	08 f0       	brcs	.+2      	; 0x2d52 <main+0xd54>
    2d50:	30 e0       	ldi	r19, 0x00	; 0
    2d52:	3f 2b       	or	r19, r31
    2d54:	4f 85       	ldd	r20, Y+15	; 0x0f
    2d56:	41 50       	subi	r20, 0x01	; 1
    2d58:	34 0f       	add	r19, r20
    2d5a:	09 f0       	breq	.+2      	; 0x2d5e <main+0xd60>
    2d5c:	4f c0       	rjmp	.+158    	; 0x2dfc <main+0xdfe>
    2d5e:	88 23       	and	r24, r24
    2d60:	09 f0       	breq	.+2      	; 0x2d64 <main+0xd66>
    2d62:	4c c0       	rjmp	.+152    	; 0x2dfc <main+0xdfe>
    2d64:	99 23       	and	r25, r25
    2d66:	09 f0       	breq	.+2      	; 0x2d6a <main+0xd6c>
    2d68:	49 c0       	rjmp	.+146    	; 0x2dfc <main+0xdfe>
    2d6a:	ee 23       	and	r30, r30
    2d6c:	09 f0       	breq	.+2      	; 0x2d70 <main+0xd72>
    2d6e:	46 c0       	rjmp	.+140    	; 0x2dfc <main+0xdfe>
    2d70:	77 23       	and	r23, r23
    2d72:	09 f0       	breq	.+2      	; 0x2d76 <main+0xd78>
    2d74:	43 c0       	rjmp	.+134    	; 0x2dfc <main+0xdfe>
    2d76:	66 23       	and	r22, r22
    2d78:	09 f0       	breq	.+2      	; 0x2d7c <main+0xd7e>
    2d7a:	40 c0       	rjmp	.+128    	; 0x2dfc <main+0xdfe>
    2d7c:	24 30       	cpi	r18, 0x04	; 4
    2d7e:	f0 f5       	brcc	.+124    	; 0x2dfc <main+0xdfe>
    2d80:	23 30       	cpi	r18, 0x03	; 3
    2d82:	11 f4       	brne	.+4      	; 0x2d88 <main+0xd8a>
    2d84:	54 38       	cpi	r21, 0x84	; 132
    2d86:	d0 f5       	brcc	.+116    	; 0x2dfc <main+0xdfe>
    2d88:	28 85       	ldd	r18, Y+8	; 0x08
    2d8a:	39 85       	ldd	r19, Y+9	; 0x09
    2d8c:	4a 85       	ldd	r20, Y+10	; 0x0a
    2d8e:	5b 85       	ldd	r21, Y+11	; 0x0b
    2d90:	6c 85       	ldd	r22, Y+12	; 0x0c
    2d92:	7d 85       	ldd	r23, Y+13	; 0x0d
    2d94:	8e 85       	ldd	r24, Y+14	; 0x0e
    2d96:	9f 85       	ldd	r25, Y+15	; 0x0f
    2d98:	a4 e6       	ldi	r26, 0x64	; 100
    2d9a:	aa 2e       	mov	r10, r26
    2d9c:	bb 24       	eor	r11, r11
    2d9e:	cc 24       	eor	r12, r12
    2da0:	dd 24       	eor	r13, r13
    2da2:	ee 24       	eor	r14, r14
    2da4:	ff 24       	eor	r15, r15
    2da6:	00 e0       	ldi	r16, 0x00	; 0
    2da8:	10 e0       	ldi	r17, 0x00	; 0
    2daa:	0e 94 1c 04 	call	0x838	; 0x838 <__udivdi3>
    2dae:	82 2f       	mov	r24, r18
    2db0:	80 5d       	subi	r24, 0xD0	; 208
    2db2:	0e 94 d4 03 	call	0x7a8	; 0x7a8 <LCD_vSendChar>
    2db6:	28 85       	ldd	r18, Y+8	; 0x08
    2db8:	39 85       	ldd	r19, Y+9	; 0x09
    2dba:	4a 85       	ldd	r20, Y+10	; 0x0a
    2dbc:	5b 85       	ldd	r21, Y+11	; 0x0b
    2dbe:	6c 85       	ldd	r22, Y+12	; 0x0c
    2dc0:	7d 85       	ldd	r23, Y+13	; 0x0d
    2dc2:	8e 85       	ldd	r24, Y+14	; 0x0e
    2dc4:	9f 85       	ldd	r25, Y+15	; 0x0f
    2dc6:	0e 94 61 0a 	call	0x14c2	; 0x14c2 <__umoddi3>
    2dca:	92 2e       	mov	r9, r18
    2dcc:	83 2e       	mov	r8, r19
    2dce:	74 2e       	mov	r7, r20
    2dd0:	65 2e       	mov	r6, r21
    2dd2:	56 2e       	mov	r5, r22
    2dd4:	47 2e       	mov	r4, r23
    2dd6:	38 2e       	mov	r3, r24
    2dd8:	29 2e       	mov	r2, r25
    2dda:	fa e0       	ldi	r31, 0x0A	; 10
    2ddc:	af 2e       	mov	r10, r31
    2dde:	0e 94 1c 04 	call	0x838	; 0x838 <__udivdi3>
    2de2:	82 2f       	mov	r24, r18
    2de4:	80 5d       	subi	r24, 0xD0	; 208
    2de6:	0e 94 d4 03 	call	0x7a8	; 0x7a8 <LCD_vSendChar>
    2dea:	29 2d       	mov	r18, r9
    2dec:	38 2d       	mov	r19, r8
    2dee:	47 2d       	mov	r20, r7
    2df0:	56 2d       	mov	r21, r6
    2df2:	65 2d       	mov	r22, r5
    2df4:	74 2d       	mov	r23, r4
    2df6:	83 2d       	mov	r24, r3
    2df8:	92 2d       	mov	r25, r2
    2dfa:	89 c0       	rjmp	.+274    	; 0x2f0e <main+0xf10>
    2dfc:	48 85       	ldd	r20, Y+8	; 0x08
    2dfe:	4a 50       	subi	r20, 0x0A	; 10
    2e00:	51 e0       	ldi	r21, 0x01	; 1
    2e02:	68 85       	ldd	r22, Y+8	; 0x08
    2e04:	46 17       	cp	r20, r22
    2e06:	08 f0       	brcs	.+2      	; 0x2e0a <main+0xe0c>
    2e08:	50 e0       	ldi	r21, 0x00	; 0
    2e0a:	99 85       	ldd	r25, Y+9	; 0x09
    2e0c:	91 50       	subi	r25, 0x01	; 1
    2e0e:	81 e0       	ldi	r24, 0x01	; 1
    2e10:	79 85       	ldd	r23, Y+9	; 0x09
    2e12:	97 17       	cp	r25, r23
    2e14:	08 f0       	brcs	.+2      	; 0x2e18 <main+0xe1a>
    2e16:	80 e0       	ldi	r24, 0x00	; 0
    2e18:	59 0f       	add	r21, r25
    2e1a:	21 e0       	ldi	r18, 0x01	; 1
    2e1c:	59 17       	cp	r21, r25
    2e1e:	08 f0       	brcs	.+2      	; 0x2e22 <main+0xe24>
    2e20:	20 e0       	ldi	r18, 0x00	; 0
    2e22:	82 2b       	or	r24, r18
    2e24:	2a 85       	ldd	r18, Y+10	; 0x0a
    2e26:	21 50       	subi	r18, 0x01	; 1
    2e28:	91 e0       	ldi	r25, 0x01	; 1
    2e2a:	aa 85       	ldd	r26, Y+10	; 0x0a
    2e2c:	2a 17       	cp	r18, r26
    2e2e:	08 f0       	brcs	.+2      	; 0x2e32 <main+0xe34>
    2e30:	90 e0       	ldi	r25, 0x00	; 0
    2e32:	68 2f       	mov	r22, r24
    2e34:	62 0f       	add	r22, r18
    2e36:	81 e0       	ldi	r24, 0x01	; 1
    2e38:	62 17       	cp	r22, r18
    2e3a:	08 f0       	brcs	.+2      	; 0x2e3e <main+0xe40>
    2e3c:	80 e0       	ldi	r24, 0x00	; 0
    2e3e:	98 2b       	or	r25, r24
    2e40:	2b 85       	ldd	r18, Y+11	; 0x0b
    2e42:	21 50       	subi	r18, 0x01	; 1
    2e44:	81 e0       	ldi	r24, 0x01	; 1
    2e46:	bb 85       	ldd	r27, Y+11	; 0x0b
    2e48:	2b 17       	cp	r18, r27
    2e4a:	08 f0       	brcs	.+2      	; 0x2e4e <main+0xe50>
    2e4c:	80 e0       	ldi	r24, 0x00	; 0
    2e4e:	79 2f       	mov	r23, r25
    2e50:	72 0f       	add	r23, r18
    2e52:	91 e0       	ldi	r25, 0x01	; 1
    2e54:	72 17       	cp	r23, r18
    2e56:	08 f0       	brcs	.+2      	; 0x2e5a <main+0xe5c>
    2e58:	90 e0       	ldi	r25, 0x00	; 0
    2e5a:	89 2b       	or	r24, r25
    2e5c:	2c 85       	ldd	r18, Y+12	; 0x0c
    2e5e:	21 50       	subi	r18, 0x01	; 1
    2e60:	91 e0       	ldi	r25, 0x01	; 1
    2e62:	ec 85       	ldd	r30, Y+12	; 0x0c
    2e64:	2e 17       	cp	r18, r30
    2e66:	08 f0       	brcs	.+2      	; 0x2e6a <main+0xe6c>
    2e68:	90 e0       	ldi	r25, 0x00	; 0
    2e6a:	e8 2f       	mov	r30, r24
    2e6c:	e2 0f       	add	r30, r18
    2e6e:	81 e0       	ldi	r24, 0x01	; 1
    2e70:	e2 17       	cp	r30, r18
    2e72:	08 f0       	brcs	.+2      	; 0x2e76 <main+0xe78>
    2e74:	80 e0       	ldi	r24, 0x00	; 0
    2e76:	98 2b       	or	r25, r24
    2e78:	2d 85       	ldd	r18, Y+13	; 0x0d
    2e7a:	21 50       	subi	r18, 0x01	; 1
    2e7c:	81 e0       	ldi	r24, 0x01	; 1
    2e7e:	fd 85       	ldd	r31, Y+13	; 0x0d
    2e80:	2f 17       	cp	r18, r31
    2e82:	08 f0       	brcs	.+2      	; 0x2e86 <main+0xe88>
    2e84:	80 e0       	ldi	r24, 0x00	; 0
    2e86:	92 0f       	add	r25, r18
    2e88:	31 e0       	ldi	r19, 0x01	; 1
    2e8a:	92 17       	cp	r25, r18
    2e8c:	08 f0       	brcs	.+2      	; 0x2e90 <main+0xe92>
    2e8e:	30 e0       	ldi	r19, 0x00	; 0
    2e90:	83 2b       	or	r24, r19
    2e92:	3e 85       	ldd	r19, Y+14	; 0x0e
    2e94:	31 50       	subi	r19, 0x01	; 1
    2e96:	f1 e0       	ldi	r31, 0x01	; 1
    2e98:	2e 85       	ldd	r18, Y+14	; 0x0e
    2e9a:	32 17       	cp	r19, r18
    2e9c:	08 f0       	brcs	.+2      	; 0x2ea0 <main+0xea2>
    2e9e:	f0 e0       	ldi	r31, 0x00	; 0
    2ea0:	83 0f       	add	r24, r19
    2ea2:	21 e0       	ldi	r18, 0x01	; 1
    2ea4:	83 17       	cp	r24, r19
    2ea6:	08 f0       	brcs	.+2      	; 0x2eaa <main+0xeac>
    2ea8:	20 e0       	ldi	r18, 0x00	; 0
    2eaa:	2f 2b       	or	r18, r31
    2eac:	3f 85       	ldd	r19, Y+15	; 0x0f
    2eae:	31 50       	subi	r19, 0x01	; 1
    2eb0:	23 0f       	add	r18, r19
    2eb2:	89 f5       	brne	.+98     	; 0x2f16 <main+0xf18>
    2eb4:	88 23       	and	r24, r24
    2eb6:	79 f5       	brne	.+94     	; 0x2f16 <main+0xf18>
    2eb8:	99 23       	and	r25, r25
    2eba:	69 f5       	brne	.+90     	; 0x2f16 <main+0xf18>
    2ebc:	ee 23       	and	r30, r30
    2ebe:	59 f5       	brne	.+86     	; 0x2f16 <main+0xf18>
    2ec0:	77 23       	and	r23, r23
    2ec2:	49 f5       	brne	.+82     	; 0x2f16 <main+0xf18>
    2ec4:	66 23       	and	r22, r22
    2ec6:	39 f5       	brne	.+78     	; 0x2f16 <main+0xf18>
    2ec8:	55 23       	and	r21, r21
    2eca:	29 f5       	brne	.+74     	; 0x2f16 <main+0xf18>
    2ecc:	4a 35       	cpi	r20, 0x5A	; 90
    2ece:	18 f5       	brcc	.+70     	; 0x2f16 <main+0xf18>
    2ed0:	28 85       	ldd	r18, Y+8	; 0x08
    2ed2:	39 85       	ldd	r19, Y+9	; 0x09
    2ed4:	4a 85       	ldd	r20, Y+10	; 0x0a
    2ed6:	5b 85       	ldd	r21, Y+11	; 0x0b
    2ed8:	6c 85       	ldd	r22, Y+12	; 0x0c
    2eda:	7d 85       	ldd	r23, Y+13	; 0x0d
    2edc:	8e 85       	ldd	r24, Y+14	; 0x0e
    2ede:	9f 85       	ldd	r25, Y+15	; 0x0f
    2ee0:	ea e0       	ldi	r30, 0x0A	; 10
    2ee2:	ae 2e       	mov	r10, r30
    2ee4:	bb 24       	eor	r11, r11
    2ee6:	cc 24       	eor	r12, r12
    2ee8:	dd 24       	eor	r13, r13
    2eea:	ee 24       	eor	r14, r14
    2eec:	ff 24       	eor	r15, r15
    2eee:	00 e0       	ldi	r16, 0x00	; 0
    2ef0:	10 e0       	ldi	r17, 0x00	; 0
    2ef2:	0e 94 1c 04 	call	0x838	; 0x838 <__udivdi3>
    2ef6:	82 2f       	mov	r24, r18
    2ef8:	80 5d       	subi	r24, 0xD0	; 208
    2efa:	0e 94 d4 03 	call	0x7a8	; 0x7a8 <LCD_vSendChar>
    2efe:	28 85       	ldd	r18, Y+8	; 0x08
    2f00:	39 85       	ldd	r19, Y+9	; 0x09
    2f02:	4a 85       	ldd	r20, Y+10	; 0x0a
    2f04:	5b 85       	ldd	r21, Y+11	; 0x0b
    2f06:	6c 85       	ldd	r22, Y+12	; 0x0c
    2f08:	7d 85       	ldd	r23, Y+13	; 0x0d
    2f0a:	8e 85       	ldd	r24, Y+14	; 0x0e
    2f0c:	9f 85       	ldd	r25, Y+15	; 0x0f
    2f0e:	0e 94 61 0a 	call	0x14c2	; 0x14c2 <__umoddi3>
    2f12:	82 2f       	mov	r24, r18
    2f14:	21 c0       	rjmp	.+66     	; 0x2f58 <main+0xf5a>
    2f16:	3f 85       	ldd	r19, Y+15	; 0x0f
    2f18:	33 23       	and	r19, r19
    2f1a:	09 f0       	breq	.+2      	; 0x2f1e <main+0xf20>
    2f1c:	8c c8       	rjmp	.-3816   	; 0x2036 <main+0x38>
    2f1e:	4e 85       	ldd	r20, Y+14	; 0x0e
    2f20:	44 23       	and	r20, r20
    2f22:	09 f0       	breq	.+2      	; 0x2f26 <main+0xf28>
    2f24:	88 c8       	rjmp	.-3824   	; 0x2036 <main+0x38>
    2f26:	5d 85       	ldd	r21, Y+13	; 0x0d
    2f28:	55 23       	and	r21, r21
    2f2a:	09 f0       	breq	.+2      	; 0x2f2e <main+0xf30>
    2f2c:	84 c8       	rjmp	.-3832   	; 0x2036 <main+0x38>
    2f2e:	6c 85       	ldd	r22, Y+12	; 0x0c
    2f30:	66 23       	and	r22, r22
    2f32:	09 f0       	breq	.+2      	; 0x2f36 <main+0xf38>
    2f34:	80 c8       	rjmp	.-3840   	; 0x2036 <main+0x38>
    2f36:	7b 85       	ldd	r23, Y+11	; 0x0b
    2f38:	77 23       	and	r23, r23
    2f3a:	09 f0       	breq	.+2      	; 0x2f3e <main+0xf40>
    2f3c:	7c c8       	rjmp	.-3848   	; 0x2036 <main+0x38>
    2f3e:	8a 85       	ldd	r24, Y+10	; 0x0a
    2f40:	88 23       	and	r24, r24
    2f42:	09 f0       	breq	.+2      	; 0x2f46 <main+0xf48>
    2f44:	78 c8       	rjmp	.-3856   	; 0x2036 <main+0x38>
    2f46:	99 85       	ldd	r25, Y+9	; 0x09
    2f48:	99 23       	and	r25, r25
    2f4a:	09 f0       	breq	.+2      	; 0x2f4e <main+0xf50>
    2f4c:	74 c8       	rjmp	.-3864   	; 0x2036 <main+0x38>
    2f4e:	a8 85       	ldd	r26, Y+8	; 0x08
    2f50:	aa 30       	cpi	r26, 0x0A	; 10
    2f52:	08 f0       	brcs	.+2      	; 0x2f56 <main+0xf58>
    2f54:	70 c8       	rjmp	.-3872   	; 0x2036 <main+0x38>
    2f56:	8a 2f       	mov	r24, r26
    2f58:	80 5d       	subi	r24, 0xD0	; 208
    2f5a:	0e 94 d4 03 	call	0x7a8	; 0x7a8 <LCD_vSendChar>
    2f5e:	6b c8       	rjmp	.-3882   	; 0x2036 <main+0x38>
    2f60:	0e 94 f7 03 	call	0x7ee	; 0x7ee <LCD_vClearScreen>
    2f64:	68 c8       	rjmp	.-3888   	; 0x2036 <main+0x38>

00002f66 <__mulsi3>:
    2f66:	62 9f       	mul	r22, r18
    2f68:	d0 01       	movw	r26, r0
    2f6a:	73 9f       	mul	r23, r19
    2f6c:	f0 01       	movw	r30, r0
    2f6e:	82 9f       	mul	r24, r18
    2f70:	e0 0d       	add	r30, r0
    2f72:	f1 1d       	adc	r31, r1
    2f74:	64 9f       	mul	r22, r20
    2f76:	e0 0d       	add	r30, r0
    2f78:	f1 1d       	adc	r31, r1
    2f7a:	92 9f       	mul	r25, r18
    2f7c:	f0 0d       	add	r31, r0
    2f7e:	83 9f       	mul	r24, r19
    2f80:	f0 0d       	add	r31, r0
    2f82:	74 9f       	mul	r23, r20
    2f84:	f0 0d       	add	r31, r0
    2f86:	65 9f       	mul	r22, r21
    2f88:	f0 0d       	add	r31, r0
    2f8a:	99 27       	eor	r25, r25
    2f8c:	72 9f       	mul	r23, r18
    2f8e:	b0 0d       	add	r27, r0
    2f90:	e1 1d       	adc	r30, r1
    2f92:	f9 1f       	adc	r31, r25
    2f94:	63 9f       	mul	r22, r19
    2f96:	b0 0d       	add	r27, r0
    2f98:	e1 1d       	adc	r30, r1
    2f9a:	f9 1f       	adc	r31, r25
    2f9c:	bd 01       	movw	r22, r26
    2f9e:	cf 01       	movw	r24, r30
    2fa0:	11 24       	eor	r1, r1
    2fa2:	08 95       	ret

00002fa4 <__udivmodsi4>:
    2fa4:	a1 e2       	ldi	r26, 0x21	; 33
    2fa6:	1a 2e       	mov	r1, r26
    2fa8:	aa 1b       	sub	r26, r26
    2faa:	bb 1b       	sub	r27, r27
    2fac:	fd 01       	movw	r30, r26
    2fae:	0d c0       	rjmp	.+26     	; 0x2fca <__udivmodsi4_ep>

00002fb0 <__udivmodsi4_loop>:
    2fb0:	aa 1f       	adc	r26, r26
    2fb2:	bb 1f       	adc	r27, r27
    2fb4:	ee 1f       	adc	r30, r30
    2fb6:	ff 1f       	adc	r31, r31
    2fb8:	a2 17       	cp	r26, r18
    2fba:	b3 07       	cpc	r27, r19
    2fbc:	e4 07       	cpc	r30, r20
    2fbe:	f5 07       	cpc	r31, r21
    2fc0:	20 f0       	brcs	.+8      	; 0x2fca <__udivmodsi4_ep>
    2fc2:	a2 1b       	sub	r26, r18
    2fc4:	b3 0b       	sbc	r27, r19
    2fc6:	e4 0b       	sbc	r30, r20
    2fc8:	f5 0b       	sbc	r31, r21

00002fca <__udivmodsi4_ep>:
    2fca:	66 1f       	adc	r22, r22
    2fcc:	77 1f       	adc	r23, r23
    2fce:	88 1f       	adc	r24, r24
    2fd0:	99 1f       	adc	r25, r25
    2fd2:	1a 94       	dec	r1
    2fd4:	69 f7       	brne	.-38     	; 0x2fb0 <__udivmodsi4_loop>
    2fd6:	60 95       	com	r22
    2fd8:	70 95       	com	r23
    2fda:	80 95       	com	r24
    2fdc:	90 95       	com	r25
    2fde:	9b 01       	movw	r18, r22
    2fe0:	ac 01       	movw	r20, r24
    2fe2:	bd 01       	movw	r22, r26
    2fe4:	cf 01       	movw	r24, r30
    2fe6:	08 95       	ret

00002fe8 <__prologue_saves__>:
    2fe8:	2f 92       	push	r2
    2fea:	3f 92       	push	r3
    2fec:	4f 92       	push	r4
    2fee:	5f 92       	push	r5
    2ff0:	6f 92       	push	r6
    2ff2:	7f 92       	push	r7
    2ff4:	8f 92       	push	r8
    2ff6:	9f 92       	push	r9
    2ff8:	af 92       	push	r10
    2ffa:	bf 92       	push	r11
    2ffc:	cf 92       	push	r12
    2ffe:	df 92       	push	r13
    3000:	ef 92       	push	r14
    3002:	ff 92       	push	r15
    3004:	0f 93       	push	r16
    3006:	1f 93       	push	r17
    3008:	cf 93       	push	r28
    300a:	df 93       	push	r29
    300c:	cd b7       	in	r28, 0x3d	; 61
    300e:	de b7       	in	r29, 0x3e	; 62
    3010:	ca 1b       	sub	r28, r26
    3012:	db 0b       	sbc	r29, r27
    3014:	0f b6       	in	r0, 0x3f	; 63
    3016:	f8 94       	cli
    3018:	de bf       	out	0x3e, r29	; 62
    301a:	0f be       	out	0x3f, r0	; 63
    301c:	cd bf       	out	0x3d, r28	; 61
    301e:	09 94       	ijmp

00003020 <__epilogue_restores__>:
    3020:	2a 88       	ldd	r2, Y+18	; 0x12
    3022:	39 88       	ldd	r3, Y+17	; 0x11
    3024:	48 88       	ldd	r4, Y+16	; 0x10
    3026:	5f 84       	ldd	r5, Y+15	; 0x0f
    3028:	6e 84       	ldd	r6, Y+14	; 0x0e
    302a:	7d 84       	ldd	r7, Y+13	; 0x0d
    302c:	8c 84       	ldd	r8, Y+12	; 0x0c
    302e:	9b 84       	ldd	r9, Y+11	; 0x0b
    3030:	aa 84       	ldd	r10, Y+10	; 0x0a
    3032:	b9 84       	ldd	r11, Y+9	; 0x09
    3034:	c8 84       	ldd	r12, Y+8	; 0x08
    3036:	df 80       	ldd	r13, Y+7	; 0x07
    3038:	ee 80       	ldd	r14, Y+6	; 0x06
    303a:	fd 80       	ldd	r15, Y+5	; 0x05
    303c:	0c 81       	ldd	r16, Y+4	; 0x04
    303e:	1b 81       	ldd	r17, Y+3	; 0x03
    3040:	aa 81       	ldd	r26, Y+2	; 0x02
    3042:	b9 81       	ldd	r27, Y+1	; 0x01
    3044:	ce 0f       	add	r28, r30
    3046:	d1 1d       	adc	r29, r1
    3048:	0f b6       	in	r0, 0x3f	; 63
    304a:	f8 94       	cli
    304c:	de bf       	out	0x3e, r29	; 62
    304e:	0f be       	out	0x3f, r0	; 63
    3050:	cd bf       	out	0x3d, r28	; 61
    3052:	ed 01       	movw	r28, r26
    3054:	08 95       	ret

00003056 <_exit>:
    3056:	f8 94       	cli

00003058 <__stop_program>:
    3058:	ff cf       	rjmp	.-2      	; 0x3058 <__stop_program>
